
zephyr.elf:     file format elf32-littleriscv


Disassembly of section .iram0.text:

40380000 <_esp32c3_vector_table>:
40380000:	1000006f          	j	40380100 <_isr_wrapper>
40380004:	0fc0006f          	j	40380100 <_isr_wrapper>
40380008:	0f80006f          	j	40380100 <_isr_wrapper>
4038000c:	0f40006f          	j	40380100 <_isr_wrapper>
40380010:	0f00006f          	j	40380100 <_isr_wrapper>
40380014:	0ec0006f          	j	40380100 <_isr_wrapper>
40380018:	0e80006f          	j	40380100 <_isr_wrapper>
4038001c:	0e40006f          	j	40380100 <_isr_wrapper>
40380020:	0e00006f          	j	40380100 <_isr_wrapper>
40380024:	0dc0006f          	j	40380100 <_isr_wrapper>
40380028:	0d80006f          	j	40380100 <_isr_wrapper>
4038002c:	0d40006f          	j	40380100 <_isr_wrapper>
40380030:	0d00006f          	j	40380100 <_isr_wrapper>
40380034:	0cc0006f          	j	40380100 <_isr_wrapper>
40380038:	0c80006f          	j	40380100 <_isr_wrapper>
4038003c:	0c40006f          	j	40380100 <_isr_wrapper>
40380040:	0c00006f          	j	40380100 <_isr_wrapper>
40380044:	0bc0006f          	j	40380100 <_isr_wrapper>
40380048:	0b80006f          	j	40380100 <_isr_wrapper>
4038004c:	0b40006f          	j	40380100 <_isr_wrapper>
40380050:	0b00006f          	j	40380100 <_isr_wrapper>
40380054:	0ac0006f          	j	40380100 <_isr_wrapper>
40380058:	0a80006f          	j	40380100 <_isr_wrapper>
4038005c:	0a40006f          	j	40380100 <_isr_wrapper>
40380060:	0a00006f          	j	40380100 <_isr_wrapper>
40380064:	09c0006f          	j	40380100 <_isr_wrapper>
40380068:	0980006f          	j	40380100 <_isr_wrapper>
4038006c:	0940006f          	j	40380100 <_isr_wrapper>
40380070:	0900006f          	j	40380100 <_isr_wrapper>
40380074:	08c0006f          	j	40380100 <_isr_wrapper>
40380078:	0880006f          	j	40380100 <_isr_wrapper>
4038007c:	0840006f          	j	40380100 <_isr_wrapper>
	...

40380100 <_isr_wrapper>:
40380100:	fb010113          	addi	sp,sp,-80
40380104:	00512223          	sw	t0,4(sp)
40380108:	00612423          	sw	t1,8(sp)
4038010c:	00712623          	sw	t2,12(sp)
40380110:	01c12823          	sw	t3,16(sp)
40380114:	01d12a23          	sw	t4,20(sp)
40380118:	01e12c23          	sw	t5,24(sp)
4038011c:	01f12e23          	sw	t6,28(sp)
40380120:	02a12023          	sw	a0,32(sp)
40380124:	02b12223          	sw	a1,36(sp)
40380128:	02c12423          	sw	a2,40(sp)
4038012c:	02d12623          	sw	a3,44(sp)
40380130:	02e12823          	sw	a4,48(sp)
40380134:	02f12a23          	sw	a5,52(sp)
40380138:	03012c23          	sw	a6,56(sp)
4038013c:	03112e23          	sw	a7,60(sp)
40380140:	00112023          	sw	ra,0(sp)
40380144:	04812423          	sw	s0,72(sp)
40380148:	ff903417          	auipc	s0,0xff903
4038014c:	ca840413          	addi	s0,s0,-856 # 3fc82df0 <_kernel>
40380150:	341022f3          	csrr	t0,mepc
40380154:	04512023          	sw	t0,64(sp)
40380158:	300023f3          	csrr	t2,mstatus
4038015c:	04712223          	sw	t2,68(sp)
40380160:	150000ef          	jal	ra,403802b0 <__soc_is_irq>
40380164:	04051e63          	bnez	a0,403801c0 <is_interrupt>
40380168:	342022f3          	csrr	t0,mcause
4038016c:	800003b7          	lui	t2,0x80000
40380170:	fff38393          	addi	t2,t2,-1 # 7fffffff <CONFIG_SYSTEM_WORKQUEUE_PRIORITY+0x80000000>
40380174:	0072f2b3          	and	t0,t0,t2
40380178:	00b00313          	li	t1,11
4038017c:	00628c63          	beq	t0,t1,40380194 <is_kernel_syscall>
40380180:	00010513          	mv	a0,sp
40380184:	00000097          	auipc	ra,0x0
40380188:	0d008093          	addi	ra,ra,208 # 40380254 <no_reschedule>
4038018c:	01c93317          	auipc	t1,0x1c93
40380190:	f8c30067          	jr	-116(t1) # 42013118 <_Fault>

40380194 <is_kernel_syscall>:
40380194:	04012283          	lw	t0,64(sp)
40380198:	00428293          	addi	t0,t0,4
4038019c:	04512023          	sw	t0,64(sp)
403801a0:	00412283          	lw	t0,4(sp)
403801a4:	00028663          	beqz	t0,403801b0 <do_fault>
403801a8:	00300513          	li	a0,3
403801ac:	0080006f          	j	403801b4 <do_fault+0x4>

403801b0 <do_fault>:
403801b0:	02012503          	lw	a0,32(sp)
403801b4:	00010593          	mv	a1,sp
403801b8:	01c93317          	auipc	t1,0x1c93
403801bc:	f5030067          	jr	-176(t1) # 42013108 <z_riscv_fatal_error>

403801c0 <is_interrupt>:
403801c0:	00042303          	lw	t1,0(s0)
403801c4:	00130393          	addi	t2,t1,1
403801c8:	00742023          	sw	t2,0(s0)
403801cc:	00031a63          	bnez	t1,403801e0 <on_irq_stack>
403801d0:	00010293          	mv	t0,sp
403801d4:	00442103          	lw	sp,4(s0)
403801d8:	ff010113          	addi	sp,sp,-16
403801dc:	00512023          	sw	t0,0(sp)

403801e0 <on_irq_stack>:
403801e0:	34202573          	csrr	a0,mcause
403801e4:	800002b7          	lui	t0,0x80000
403801e8:	fff28293          	addi	t0,t0,-1 # 7fffffff <CONFIG_SYSTEM_WORKQUEUE_PRIORITY+0x80000000>
403801ec:	00557533          	and	a0,a0,t0
403801f0:	0cc000ef          	jal	ra,403802bc <__soc_handle_irq>
403801f4:	ff905297          	auipc	t0,0xff905
403801f8:	ee428293          	addi	t0,t0,-284 # 3fc850d8 <_sw_isr_table>
403801fc:	00351513          	slli	a0,a0,0x3
40380200:	00a282b3          	add	t0,t0,a0
40380204:	0002a503          	lw	a0,0(t0)
40380208:	0042a303          	lw	t1,4(t0)
4038020c:	000300e7          	jalr	t1

40380210 <irq_done>:
40380210:	00042383          	lw	t2,0(s0)
40380214:	fff38393          	addi	t2,t2,-1
40380218:	00742023          	sw	t2,0(s0)
4038021c:	02039c63          	bnez	t2,40380254 <no_reschedule>
40380220:	00012103          	lw	sp,0(sp)

40380224 <check_reschedule>:
40380224:	00842583          	lw	a1,8(s0)
40380228:	ff010113          	addi	sp,sp,-16
4038022c:	00b12023          	sw	a1,0(sp)
40380230:	00000513          	li	a0,0
40380234:	745000ef          	jal	ra,40381178 <z_get_next_switch_handle>
40380238:	00012583          	lw	a1,0(sp)
4038023c:	01010113          	addi	sp,sp,16
40380240:	00050a63          	beqz	a0,40380254 <no_reschedule>

40380244 <reschedule>:
40380244:	01c93097          	auipc	ra,0x1c93
40380248:	f3c080e7          	jalr	-196(ra) # 42013180 <z_riscv_switch>

4038024c <z_riscv_thread_start>:
4038024c:	ff903417          	auipc	s0,0xff903
40380250:	ba440413          	addi	s0,s0,-1116 # 3fc82df0 <_kernel>

40380254 <no_reschedule>:
40380254:	04012283          	lw	t0,64(sp)
40380258:	04412383          	lw	t2,68(sp)
4038025c:	34129073          	csrw	mepc,t0
40380260:	30039073          	csrw	mstatus,t2
40380264:	04812403          	lw	s0,72(sp)
40380268:	00412283          	lw	t0,4(sp)
4038026c:	00812303          	lw	t1,8(sp)
40380270:	00c12383          	lw	t2,12(sp)
40380274:	01012e03          	lw	t3,16(sp)
40380278:	01412e83          	lw	t4,20(sp)
4038027c:	01812f03          	lw	t5,24(sp)
40380280:	01c12f83          	lw	t6,28(sp)
40380284:	02012503          	lw	a0,32(sp)
40380288:	02412583          	lw	a1,36(sp)
4038028c:	02812603          	lw	a2,40(sp)
40380290:	02c12683          	lw	a3,44(sp)
40380294:	03012703          	lw	a4,48(sp)
40380298:	03412783          	lw	a5,52(sp)
4038029c:	03812803          	lw	a6,56(sp)
403802a0:	03c12883          	lw	a7,60(sp)
403802a4:	00012083          	lw	ra,0(sp)
403802a8:	05010113          	addi	sp,sp,80
403802ac:	30200073          	mret

403802b0 <__soc_is_irq>:
403802b0:	34202573          	csrr	a0,mcause
403802b4:	01f55513          	srli	a0,a0,0x1f
403802b8:	00008067          	ret

403802bc <__soc_handle_irq>:
403802bc:	ffc10113          	addi	sp,sp,-4
403802c0:	00112023          	sw	ra,0(sp)
403802c4:	01c90317          	auipc	t1,0x1c90
403802c8:	21830313          	addi	t1,t1,536 # 420104dc <soc_intr_get_next_source>
403802cc:	000300e7          	jalr	t1
403802d0:	00012083          	lw	ra,0(sp)
403802d4:	00410113          	addi	sp,sp,4
403802d8:	00008067          	ret

403802dc <__esp_platform_start>:
403802dc:	ff010113          	addi	sp,sp,-16
403802e0:	00112623          	sw	ra,12(sp)
403802e4:	ff905197          	auipc	gp,0xff905
403802e8:	55c18193          	addi	gp,gp,1372 # 3fc85840 <__global_pointer$>
403802ec:	00000297          	auipc	t0,0x0
403802f0:	d1428293          	addi	t0,t0,-748 # 40380000 <_esp32c3_vector_table>
403802f4:	30529073          	csrw	mtvec,t0
403802f8:	3e4000ef          	jal	ra,403806dc <z_bss_zero>
403802fc:	300477f3          	csrrci	a5,mstatus,8
40380300:	50d847b7          	lui	a5,0x50d84
40380304:	60008737          	lui	a4,0x60008
40380308:	aa178793          	addi	a5,a5,-1375 # 50d83aa1 <_rtc_bss_end+0xd83aa1>
4038030c:	0af72423          	sw	a5,168(a4) # 600080a8 <GPIO+0x40a8>
40380310:	09072783          	lw	a5,144(a4)
40380314:	ffff0537          	lui	a0,0xffff0
40380318:	20000593          	li	a1,512
4038031c:	00179793          	slli	a5,a5,0x1
40380320:	0017d793          	srli	a5,a5,0x1
40380324:	08f72823          	sw	a5,144(a4)
40380328:	420107b7          	lui	a5,0x42010
4038032c:	02078793          	addi	a5,a5,32 # 42010020 <_OffsetAbsSyms>
40380330:	00f57533          	and	a0,a0,a5
40380334:	c40007b7          	lui	a5,0xc4000
40380338:	00f50533          	add	a0,a0,a5
4038033c:	00e55513          	srli	a0,a0,0xe
40380340:	40a585b3          	sub	a1,a1,a0
40380344:	0a072423          	sw	zero,168(a4)
40380348:	ffc80097          	auipc	ra,0xffc80
4038034c:	200080e7          	jalr	512(ra) # 40000548 <Cache_Set_IDROM_MMU_Size>
40380350:	600267b7          	lui	a5,0x60026
40380354:	0147a703          	lw	a4,20(a5) # 60026014 <SYSTIMER+0x3014>
40380358:	00fba6b7          	lui	a3,0xfba
4038035c:	fcf68693          	addi	a3,a3,-49 # fb9fcf <CONFIG_SYS_CLOCK_HW_CYCLES_PER_SEC+0x77bcf>
40380360:	fef77713          	andi	a4,a4,-17
40380364:	00e7aa23          	sw	a4,20(a5)
40380368:	0147a703          	lw	a4,20(a5)
4038036c:	00d76733          	or	a4,a4,a3
40380370:	00e7aa23          	sw	a4,20(a5)
40380374:	01c92097          	auipc	ra,0x1c92
40380378:	284080e7          	jalr	644(ra) # 420125f8 <esp_clk_init>
4038037c:	01c92097          	auipc	ra,0x1c92
40380380:	33c080e7          	jalr	828(ra) # 420126b8 <esp_timer_early_init>
40380384:	01c93097          	auipc	ra,0x1c93
40380388:	efc080e7          	jalr	-260(ra) # 42013280 <esp_intr_initialize>
4038038c:	434000ef          	jal	ra,403807c0 <z_cstart>

40380390 <arch_printk_char_out>:
40380390:	ff010113          	addi	sp,sp,-16
40380394:	00812423          	sw	s0,8(sp)
40380398:	00112623          	sw	ra,12(sp)
4038039c:	00a00793          	li	a5,10
403803a0:	00050413          	mv	s0,a0
403803a4:	00f51863          	bne	a0,a5,403803b4 <arch_printk_char_out+0x24>
403803a8:	00d00513          	li	a0,13
403803ac:	ffc80097          	auipc	ra,0xffc80
403803b0:	cbc080e7          	jalr	-836(ra) # 40000068 <esp_rom_uart_tx_one_char>
403803b4:	0ff47513          	zext.b	a0,s0
403803b8:	ffc80097          	auipc	ra,0xffc80
403803bc:	cb0080e7          	jalr	-848(ra) # 40000068 <esp_rom_uart_tx_one_char>
403803c0:	00c12083          	lw	ra,12(sp)
403803c4:	00812403          	lw	s0,8(sp)
403803c8:	00000513          	li	a0,0
403803cc:	01010113          	addi	sp,sp,16
403803d0:	00008067          	ret

403803d4 <regi2c_ctrl_read_reg_mask>:
403803d4:	ff010113          	addi	sp,sp,-16
403803d8:	00112623          	sw	ra,12(sp)
403803dc:	00812423          	sw	s0,8(sp)
403803e0:	300477f3          	csrrci	a5,mstatus,8
403803e4:	3fc83437          	lui	s0,0x3fc83
403803e8:	c8f42223          	sw	a5,-892(s0) # 3fc82c84 <mux>
403803ec:	ffc81097          	auipc	ra,0xffc81
403803f0:	56c080e7          	jalr	1388(ra) # 40001958 <rom_i2c_readReg_Mask>
403803f4:	c8442783          	lw	a5,-892(s0)
403803f8:	0087f793          	andi	a5,a5,8
403803fc:	3007a073          	csrs	mstatus,a5
40380400:	00c12083          	lw	ra,12(sp)
40380404:	00812403          	lw	s0,8(sp)
40380408:	01010113          	addi	sp,sp,16
4038040c:	00008067          	ret

40380410 <regi2c_ctrl_write_reg>:
40380410:	ff010113          	addi	sp,sp,-16
40380414:	00112623          	sw	ra,12(sp)
40380418:	00812423          	sw	s0,8(sp)
4038041c:	300477f3          	csrrci	a5,mstatus,8
40380420:	3fc83437          	lui	s0,0x3fc83
40380424:	c8f42223          	sw	a5,-892(s0) # 3fc82c84 <mux>
40380428:	ffc81097          	auipc	ra,0xffc81
4038042c:	534080e7          	jalr	1332(ra) # 4000195c <rom_i2c_writeReg>
40380430:	c8442783          	lw	a5,-892(s0)
40380434:	0087f793          	andi	a5,a5,8
40380438:	3007a073          	csrs	mstatus,a5
4038043c:	00c12083          	lw	ra,12(sp)
40380440:	00812403          	lw	s0,8(sp)
40380444:	01010113          	addi	sp,sp,16
40380448:	00008067          	ret

4038044c <regi2c_ctrl_write_reg_mask>:
4038044c:	ff010113          	addi	sp,sp,-16
40380450:	00112623          	sw	ra,12(sp)
40380454:	00812423          	sw	s0,8(sp)
40380458:	30047873          	csrrci	a6,mstatus,8
4038045c:	3fc83437          	lui	s0,0x3fc83
40380460:	c9042223          	sw	a6,-892(s0) # 3fc82c84 <mux>
40380464:	ffc81097          	auipc	ra,0xffc81
40380468:	4fc080e7          	jalr	1276(ra) # 40001960 <rom_i2c_writeReg_Mask>
4038046c:	c8442783          	lw	a5,-892(s0)
40380470:	0087f793          	andi	a5,a5,8
40380474:	3007a073          	csrs	mstatus,a5
40380478:	00c12083          	lw	ra,12(sp)
4038047c:	00812403          	lw	s0,8(sp)
40380480:	01010113          	addi	sp,sp,16
40380484:	00008067          	ret

40380488 <gpio_esp32_isr>:
40380488:	3fc857b7          	lui	a5,0x3fc85
4038048c:	02078793          	addi	a5,a5,32 # 3fc85020 <gpio_config_0>
40380490:	00c7a703          	lw	a4,12(a5)
40380494:	0a071263          	bnez	a4,40380538 <gpio_esp32_isr+0xb0>
40380498:	ff010113          	addi	sp,sp,-16
4038049c:	00912223          	sw	s1,4(sp)
403804a0:	00112623          	sw	ra,12(sp)
403804a4:	00812423          	sw	s0,8(sp)
403804a8:	01212023          	sw	s2,0(sp)
403804ac:	0047a683          	lw	a3,4(a5)
403804b0:	04000737          	lui	a4,0x4000
403804b4:	fff70713          	addi	a4,a4,-1 # 3ffffff <CONFIG_SYS_CLOCK_HW_CYCLES_PER_SEC+0x30bdbff>
403804b8:	05c6a783          	lw	a5,92(a3)
403804bc:	fc000637          	lui	a2,0xfc000
403804c0:	00e7f4b3          	and	s1,a5,a4
403804c4:	04c6a783          	lw	a5,76(a3)
403804c8:	00c7f7b3          	and	a5,a5,a2
403804cc:	0097e7b3          	or	a5,a5,s1
403804d0:	04f6a623          	sw	a5,76(a3)
403804d4:	00048e63          	beqz	s1,403804f0 <gpio_esp32_isr+0x68>
403804d8:	3fc837b7          	lui	a5,0x3fc83
403804dc:	de87a583          	lw	a1,-536(a5) # 3fc82de8 <gpio_data_0+0x4>
403804e0:	00058863          	beqz	a1,403804f0 <gpio_esp32_isr+0x68>
403804e4:	0005a403          	lw	s0,0(a1)
403804e8:	3c000937          	lui	s2,0x3c000
403804ec:	00059e63          	bnez	a1,40380508 <gpio_esp32_isr+0x80>
403804f0:	00c12083          	lw	ra,12(sp)
403804f4:	00812403          	lw	s0,8(sp)
403804f8:	00412483          	lw	s1,4(sp)
403804fc:	00012903          	lw	s2,0(sp)
40380500:	01010113          	addi	sp,sp,16
40380504:	00008067          	ret
40380508:	0085a603          	lw	a2,8(a1)
4038050c:	00c4f633          	and	a2,s1,a2
40380510:	00060863          	beqz	a2,40380520 <gpio_esp32_isr+0x98>
40380514:	0045a783          	lw	a5,4(a1)
40380518:	79890513          	addi	a0,s2,1944 # 3c000798 <__device_dts_ord_7>
4038051c:	000780e7          	jalr	a5
40380520:	00000793          	li	a5,0
40380524:	00040463          	beqz	s0,4038052c <gpio_esp32_isr+0xa4>
40380528:	00042783          	lw	a5,0(s0)
4038052c:	00040593          	mv	a1,s0
40380530:	00078413          	mv	s0,a5
40380534:	fb9ff06f          	j	403804ec <gpio_esp32_isr+0x64>
40380538:	00008067          	ret

4038053c <z_device_state_init>:
4038053c:	00008067          	ret

40380540 <z_device_is_ready>:
40380540:	02050263          	beqz	a0,40380564 <z_device_is_ready+0x24>
40380544:	00c52703          	lw	a4,12(a0) # ffff000c <CONFIG_SYSTEM_WORKQUEUE_PRIORITY+0xffff000d>
40380548:	00000513          	li	a0,0
4038054c:	00174783          	lbu	a5,1(a4)
40380550:	0017f793          	andi	a5,a5,1
40380554:	00078a63          	beqz	a5,40380568 <z_device_is_ready+0x28>
40380558:	00074503          	lbu	a0,0(a4)
4038055c:	00153513          	seqz	a0,a0
40380560:	00008067          	ret
40380564:	00000513          	li	a0,0
40380568:	00008067          	ret

4038056c <arch_system_halt>:
4038056c:	300477f3          	csrrci	a5,mstatus,8
40380570:	0000006f          	j	40380570 <arch_system_halt+0x4>

40380574 <k_sys_fatal_error_handler>:
40380574:	ff010113          	addi	sp,sp,-16
40380578:	00112623          	sw	ra,12(sp)
4038057c:	ff1ff0ef          	jal	ra,4038056c <arch_system_halt>

40380580 <z_fatal_error>:
40380580:	fe010113          	addi	sp,sp,-32
40380584:	01212823          	sw	s2,16(sp)
40380588:	00112e23          	sw	ra,28(sp)
4038058c:	00812c23          	sw	s0,24(sp)
40380590:	00912a23          	sw	s1,20(sp)
40380594:	00050913          	mv	s2,a0
40380598:	00b12623          	sw	a1,12(sp)
4038059c:	300474f3          	csrrci	s1,mstatus,8
403805a0:	611000ef          	jal	ra,403813b0 <z_impl_z_current_get>
403805a4:	00c12583          	lw	a1,12(sp)
403805a8:	00050413          	mv	s0,a0
403805ac:	00090513          	mv	a0,s2
403805b0:	fc5ff0ef          	jal	ra,40380574 <k_sys_fatal_error_handler>
403805b4:	0084f493          	andi	s1,s1,8
403805b8:	3004a073          	csrs	mstatus,s1
403805bc:	00040513          	mv	a0,s0
403805c0:	01812403          	lw	s0,24(sp)
403805c4:	01c12083          	lw	ra,28(sp)
403805c8:	01412483          	lw	s1,20(sp)
403805cc:	01012903          	lw	s2,16(sp)
403805d0:	02010113          	addi	sp,sp,32
403805d4:	7090006f          	j	403814dc <z_impl_k_thread_abort>

403805d8 <z_sys_init_run_level>:
403805d8:	00251713          	slli	a4,a0,0x2
403805dc:	3c0007b7          	lui	a5,0x3c000
403805e0:	00150513          	addi	a0,a0,1
403805e4:	72c78793          	addi	a5,a5,1836 # 3c00072c <levels.0>
403805e8:	00251513          	slli	a0,a0,0x2
403805ec:	fe010113          	addi	sp,sp,-32
403805f0:	00e78733          	add	a4,a5,a4
403805f4:	00a787b3          	add	a5,a5,a0
403805f8:	00812c23          	sw	s0,24(sp)
403805fc:	01212823          	sw	s2,16(sp)
40380600:	00072403          	lw	s0,0(a4)
40380604:	0007a903          	lw	s2,0(a5)
40380608:	01312623          	sw	s3,12(sp)
4038060c:	00112e23          	sw	ra,28(sp)
40380610:	00912a23          	sw	s1,20(sp)
40380614:	0ff00993          	li	s3,255
40380618:	03246063          	bltu	s0,s2,40380638 <z_sys_init_run_level+0x60>
4038061c:	01c12083          	lw	ra,28(sp)
40380620:	01812403          	lw	s0,24(sp)
40380624:	01412483          	lw	s1,20(sp)
40380628:	01012903          	lw	s2,16(sp)
4038062c:	00c12983          	lw	s3,12(sp)
40380630:	02010113          	addi	sp,sp,32
40380634:	00008067          	ret
40380638:	00442483          	lw	s1,4(s0)
4038063c:	00042783          	lw	a5,0(s0)
40380640:	00048513          	mv	a0,s1
40380644:	000780e7          	jalr	a5
40380648:	02048a63          	beqz	s1,4038067c <z_sys_init_run_level+0xa4>
4038064c:	02050063          	beqz	a0,4038066c <z_sys_init_run_level+0x94>
40380650:	41f55793          	srai	a5,a0,0x1f
40380654:	00a7c533          	xor	a0,a5,a0
40380658:	40f50533          	sub	a0,a0,a5
4038065c:	00c4a703          	lw	a4,12(s1)
40380660:	00a9d463          	bge	s3,a0,40380668 <z_sys_init_run_level+0x90>
40380664:	0ff00513          	li	a0,255
40380668:	00a70023          	sb	a0,0(a4)
4038066c:	00c4a703          	lw	a4,12(s1)
40380670:	00174783          	lbu	a5,1(a4)
40380674:	0017e793          	ori	a5,a5,1
40380678:	00f700a3          	sb	a5,1(a4)
4038067c:	00840413          	addi	s0,s0,8
40380680:	f99ff06f          	j	40380618 <z_sys_init_run_level+0x40>

40380684 <bg_thread_main>:
40380684:	ff010113          	addi	sp,sp,-16
40380688:	3fc837b7          	lui	a5,0x3fc83
4038068c:	00100713          	li	a4,1
40380690:	00300513          	li	a0,3
40380694:	00112623          	sw	ra,12(sp)
40380698:	cae788a3          	sb	a4,-847(a5) # 3fc82cb1 <z_sys_post_kernel>
4038069c:	f3dff0ef          	jal	ra,403805d8 <z_sys_init_run_level>
403806a0:	338010ef          	jal	ra,403819d8 <boot_banner>
403806a4:	00400513          	li	a0,4
403806a8:	f31ff0ef          	jal	ra,403805d8 <z_sys_init_run_level>
403806ac:	2a0000ef          	jal	ra,4038094c <z_init_static_threads>
403806b0:	01c90097          	auipc	ra,0x1c90
403806b4:	9ac080e7          	jalr	-1620(ra) # 4201005c <main>
403806b8:	3fc837b7          	lui	a5,0x3fc83
403806bc:	d4078793          	addi	a5,a5,-704 # 3fc82d40 <z_main_thread>
403806c0:	00c7c703          	lbu	a4,12(a5)
403806c4:	ffe77713          	andi	a4,a4,-2
403806c8:	00e78623          	sb	a4,12(a5)
403806cc:	00c12083          	lw	ra,12(sp)
403806d0:	01010113          	addi	sp,sp,16
403806d4:	00008067          	ret

403806d8 <z_early_memset>:
403806d8:	5200206f          	j	40382bf8 <memset>

403806dc <z_bss_zero>:
403806dc:	3fc83537          	lui	a0,0x3fc83
403806e0:	3fc837b7          	lui	a5,0x3fc83
403806e4:	c7050613          	addi	a2,a0,-912 # 3fc82c70 <last_count>
403806e8:	e1878793          	addi	a5,a5,-488 # 3fc82e18 <__bss_end>
403806ec:	40c78633          	sub	a2,a5,a2
403806f0:	00000593          	li	a1,0
403806f4:	c7050513          	addi	a0,a0,-912
403806f8:	fe1ff06f          	j	403806d8 <z_early_memset>

403806fc <z_init_cpu>:
403806fc:	fe010113          	addi	sp,sp,-32
40380700:	01212823          	sw	s2,16(sp)
40380704:	08800913          	li	s2,136
40380708:	03250933          	mul	s2,a0,s2
4038070c:	00912a23          	sw	s1,20(sp)
40380710:	01800493          	li	s1,24
40380714:	3fc837b7          	lui	a5,0x3fc83
40380718:	cb878793          	addi	a5,a5,-840 # 3fc82cb8 <z_idle_threads>
4038071c:	3fc835b7          	lui	a1,0x3fc83
40380720:	00812c23          	sw	s0,24(sp)
40380724:	403816b7          	lui	a3,0x40381
40380728:	00050413          	mv	s0,a0
4038072c:	62058593          	addi	a1,a1,1568 # 3fc83620 <z_idle_stacks>
40380730:	029504b3          	mul	s1,a0,s1
40380734:	00f90933          	add	s2,s2,a5
40380738:	3fc837b7          	lui	a5,0x3fc83
4038073c:	df078793          	addi	a5,a5,-528 # 3fc82df0 <_kernel>
40380740:	00951513          	slli	a0,a0,0x9
40380744:	00012223          	sw	zero,4(sp)
40380748:	00a585b3          	add	a1,a1,a0
4038074c:	00f00893          	li	a7,15
40380750:	00090513          	mv	a0,s2
40380754:	00000813          	li	a6,0
40380758:	00f484b3          	add	s1,s1,a5
4038075c:	00100793          	li	a5,1
40380760:	00f12023          	sw	a5,0(sp)
40380764:	00048713          	mv	a4,s1
40380768:	00000793          	li	a5,0
4038076c:	a2068693          	addi	a3,a3,-1504 # 40380a20 <idle>
40380770:	20000613          	li	a2,512
40380774:	00112e23          	sw	ra,28(sp)
40380778:	14c000ef          	jal	ra,403808c4 <z_setup_new_thread>
4038077c:	00d94783          	lbu	a5,13(s2)
40380780:	00848a23          	sb	s0,20(s1)
40380784:	00140413          	addi	s0,s0,1
40380788:	ffb7f793          	andi	a5,a5,-5
4038078c:	00f906a3          	sb	a5,13(s2)
40380790:	3fc837b7          	lui	a5,0x3fc83
40380794:	00b41413          	slli	s0,s0,0xb
40380798:	e2078793          	addi	a5,a5,-480 # 3fc82e20 <z_interrupt_stacks>
4038079c:	00f40433          	add	s0,s0,a5
403807a0:	0124a623          	sw	s2,12(s1)
403807a4:	0084a223          	sw	s0,4(s1)
403807a8:	01c12083          	lw	ra,28(sp)
403807ac:	01812403          	lw	s0,24(sp)
403807b0:	01412483          	lw	s1,20(sp)
403807b4:	01012903          	lw	s2,16(sp)
403807b8:	02010113          	addi	sp,sp,32
403807bc:	00008067          	ret

403807c0 <z_cstart>:
403807c0:	f4010113          	addi	sp,sp,-192
403807c4:	00000513          	li	a0,0
403807c8:	0a112e23          	sw	ra,188(sp)
403807cc:	0a812c23          	sw	s0,184(sp)
403807d0:	0a912a23          	sw	s1,180(sp)
403807d4:	0b212823          	sw	s2,176(sp)
403807d8:	01810493          	addi	s1,sp,24
403807dc:	0b312623          	sw	s3,172(sp)
403807e0:	3fc83437          	lui	s0,0x3fc83
403807e4:	df5ff0ef          	jal	ra,403805d8 <z_sys_init_run_level>
403807e8:	10100793          	li	a5,257
403807ec:	00048513          	mv	a0,s1
403807f0:	df040413          	addi	s0,s0,-528 # 3fc82df0 <_kernel>
403807f4:	02f11223          	sh	a5,36(sp)
403807f8:	1d4010ef          	jal	ra,403819cc <k_thread_system_pool_assign>
403807fc:	00942423          	sw	s1,8(s0)
40380800:	d3dff0ef          	jal	ra,4038053c <z_device_state_init>
40380804:	00100513          	li	a0,1
40380808:	dd1ff0ef          	jal	ra,403805d8 <z_sys_init_run_level>
4038080c:	00200513          	li	a0,2
40380810:	dc9ff0ef          	jal	ra,403805d8 <z_sys_init_run_level>
40380814:	185000ef          	jal	ra,40381198 <z_sched_init>
40380818:	3c0007b7          	lui	a5,0x3c000
4038081c:	72478793          	addi	a5,a5,1828 # 3c000724 <__pinctrl_state_pins_0__device_dts_ord_43+0x10>
40380820:	3fc834b7          	lui	s1,0x3fc83
40380824:	00f12223          	sw	a5,4(sp)
40380828:	403806b7          	lui	a3,0x40380
4038082c:	00100793          	li	a5,1
40380830:	00001637          	lui	a2,0x1
40380834:	3fc845b7          	lui	a1,0x3fc84
40380838:	d4048913          	addi	s2,s1,-704 # 3fc82d40 <z_main_thread>
4038083c:	00000893          	li	a7,0
40380840:	00000813          	li	a6,0
40380844:	00000713          	li	a4,0
40380848:	68468693          	addi	a3,a3,1668 # 40380684 <bg_thread_main>
4038084c:	80060613          	addi	a2,a2,-2048 # 800 <CONFIG_ISR_STACK_SIZE>
40380850:	82058593          	addi	a1,a1,-2016 # 3fc83820 <z_main_stack>
40380854:	00f12023          	sw	a5,0(sp)
40380858:	d4048513          	addi	a0,s1,-704
4038085c:	00000793          	li	a5,0
40380860:	01242c23          	sw	s2,24(s0)
40380864:	060000ef          	jal	ra,403808c4 <z_setup_new_thread>
40380868:	00d94783          	lbu	a5,13(s2)
4038086c:	d4048513          	addi	a0,s1,-704
40380870:	ffb7f793          	andi	a5,a5,-5
40380874:	00f906a3          	sb	a5,13(s2)
40380878:	714000ef          	jal	ra,40380f8c <z_ready_thread>
4038087c:	00000513          	li	a0,0
40380880:	e7dff0ef          	jal	ra,403806fc <z_init_cpu>
40380884:	30047973          	csrrci	s2,mstatus,8
40380888:	00842983          	lw	s3,8(s0)
4038088c:	ff500793          	li	a5,-11
40380890:	06f9ac23          	sw	a5,120(s3)
40380894:	300477f3          	csrrci	a5,mstatus,8
40380898:	0d5000ef          	jal	ra,4038116c <z_swap_next_thread>
4038089c:	02a98063          	beq	s3,a0,403808bc <z_cstart+0xfc>
403808a0:	00050493          	mv	s1,a0
403808a4:	00a42423          	sw	a0,8(s0)
403808a8:	1e0000ef          	jal	ra,40380a88 <z_reset_time_slice>
403808ac:	07c4a503          	lw	a0,124(s1)
403808b0:	00098593          	mv	a1,s3
403808b4:	01c93097          	auipc	ra,0x1c93
403808b8:	8cc080e7          	jalr	-1844(ra) # 42013180 <z_riscv_switch>
403808bc:	00897913          	andi	s2,s2,8
403808c0:	30092073          	csrs	mstatus,s2

403808c4 <z_setup_new_thread>:
403808c4:	ff010113          	addi	sp,sp,-16
403808c8:	00812423          	sw	s0,8(sp)
403808cc:	00912223          	sw	s1,4(sp)
403808d0:	00112623          	sw	ra,12(sp)
403808d4:	06c50313          	addi	t1,a0,108
403808d8:	06652623          	sw	t1,108(a0)
403808dc:	06652823          	sw	t1,112(a0)
403808e0:	01012303          	lw	t1,16(sp)
403808e4:	00f60613          	addi	a2,a2,15
403808e8:	ff067613          	andi	a2,a2,-16
403808ec:	00c584b3          	add	s1,a1,a2
403808f0:	00650623          	sb	t1,12(a0)
403808f4:	00400313          	li	t1,4
403808f8:	00052423          	sw	zero,8(a0)
403808fc:	006506a3          	sb	t1,13(a0)
40380900:	01150723          	sb	a7,14(a0)
40380904:	000507a3          	sb	zero,15(a0)
40380908:	00052c23          	sw	zero,24(a0)
4038090c:	00052e23          	sw	zero,28(a0)
40380910:	00048613          	mv	a2,s1
40380914:	00050413          	mv	s0,a0
40380918:	01c93097          	auipc	ra,0x1c93
4038091c:	8e0080e7          	jalr	-1824(ra) # 420131f8 <arch_new_thread>
40380920:	3fc837b7          	lui	a5,0x3fc83
40380924:	df87a783          	lw	a5,-520(a5) # 3fc82df8 <_kernel+0x8>
40380928:	06042423          	sw	zero,104(s0)
4038092c:	00048513          	mv	a0,s1
40380930:	0807a783          	lw	a5,128(a5)
40380934:	08f42023          	sw	a5,128(s0)
40380938:	00c12083          	lw	ra,12(sp)
4038093c:	00812403          	lw	s0,8(sp)
40380940:	00412483          	lw	s1,4(sp)
40380944:	01010113          	addi	sp,sp,16
40380948:	00008067          	ret

4038094c <z_init_static_threads>:
4038094c:	fd010113          	addi	sp,sp,-48
40380950:	3c0007b7          	lui	a5,0x3c000
40380954:	03212023          	sw	s2,32(sp)
40380958:	3c000937          	lui	s2,0x3c000
4038095c:	02812423          	sw	s0,40(sp)
40380960:	02912223          	sw	s1,36(sp)
40380964:	02112623          	sw	ra,44(sp)
40380968:	01312e23          	sw	s3,28(sp)
4038096c:	7e078413          	addi	s0,a5,2016 # 3c0007e0 <__devicehdl_dts_ord_45>
40380970:	7e078493          	addi	s1,a5,2016
40380974:	7e090913          	addi	s2,s2,2016 # 3c0007e0 <__devicehdl_dts_ord_45>
40380978:	03246a63          	bltu	s0,s2,403809ac <z_init_static_threads+0x60>
4038097c:	00048413          	mv	s0,s1
40380980:	784000ef          	jal	ra,40381104 <k_sched_lock>
40380984:	fff00493          	li	s1,-1
40380988:	403819b7          	lui	s3,0x40381
4038098c:	07246263          	bltu	s0,s2,403809f0 <z_init_static_threads+0xa4>
40380990:	02812403          	lw	s0,40(sp)
40380994:	02c12083          	lw	ra,44(sp)
40380998:	02412483          	lw	s1,36(sp)
4038099c:	02012903          	lw	s2,32(sp)
403809a0:	01c12983          	lw	s3,28(sp)
403809a4:	03010113          	addi	sp,sp,48
403809a8:	7800006f          	j	40381128 <k_sched_unlock>
403809ac:	02c42783          	lw	a5,44(s0)
403809b0:	00f12223          	sw	a5,4(sp)
403809b4:	02042783          	lw	a5,32(s0)
403809b8:	00f12023          	sw	a5,0(sp)
403809bc:	01442783          	lw	a5,20(s0)
403809c0:	01c42883          	lw	a7,28(s0)
403809c4:	01842803          	lw	a6,24(s0)
403809c8:	01042703          	lw	a4,16(s0)
403809cc:	00c42683          	lw	a3,12(s0)
403809d0:	00842603          	lw	a2,8(s0)
403809d4:	00442583          	lw	a1,4(s0)
403809d8:	00042503          	lw	a0,0(s0)
403809dc:	ee9ff0ef          	jal	ra,403808c4 <z_setup_new_thread>
403809e0:	00042783          	lw	a5,0(s0)
403809e4:	0687a423          	sw	s0,104(a5)
403809e8:	03040413          	addi	s0,s0,48
403809ec:	f8dff06f          	j	40380978 <z_init_static_threads+0x2c>
403809f0:	02442603          	lw	a2,36(s0)
403809f4:	00960863          	beq	a2,s1,40380a04 <z_init_static_threads+0xb8>
403809f8:	00042503          	lw	a0,0(s0)
403809fc:	00c04863          	bgtz	a2,40380a0c <z_init_static_threads+0xc0>
40380a00:	5e8000ef          	jal	ra,40380fe8 <z_sched_start>
40380a04:	03040413          	addi	s0,s0,48
40380a08:	f85ff06f          	j	4038098c <z_init_static_threads+0x40>
40380a0c:	41f65693          	srai	a3,a2,0x1f
40380a10:	dd498593          	addi	a1,s3,-556 # 40380dd4 <z_thread_timeout>
40380a14:	01850513          	addi	a0,a0,24
40380a18:	3bd000ef          	jal	ra,403815d4 <z_add_timeout>
40380a1c:	fe9ff06f          	j	40380a04 <z_init_static_threads+0xb8>

40380a20 <idle>:
40380a20:	ff010113          	addi	sp,sp,-16
40380a24:	00112623          	sw	ra,12(sp)
40380a28:	300477f3          	csrrci	a5,mstatus,8
40380a2c:	01c90097          	auipc	ra,0x1c90
40380a30:	a98080e7          	jalr	-1384(ra) # 420104c4 <arch_cpu_idle>
40380a34:	ff5ff06f          	j	40380a28 <idle+0x8>

40380a38 <sys_dlist_remove>:
40380a38:	00452703          	lw	a4,4(a0)
40380a3c:	00052783          	lw	a5,0(a0)
40380a40:	00f72023          	sw	a5,0(a4)
40380a44:	00e7a223          	sw	a4,4(a5)
40380a48:	00052023          	sw	zero,0(a0)
40380a4c:	00052223          	sw	zero,4(a0)
40380a50:	00008067          	ret

40380a54 <unpend_thread_no_timeout>:
40380a54:	ff010113          	addi	sp,sp,-16
40380a58:	00812423          	sw	s0,8(sp)
40380a5c:	00112623          	sw	ra,12(sp)
40380a60:	00050413          	mv	s0,a0
40380a64:	fd5ff0ef          	jal	ra,40380a38 <sys_dlist_remove>
40380a68:	00d44783          	lbu	a5,13(s0)
40380a6c:	00042423          	sw	zero,8(s0)
40380a70:	ffd7f793          	andi	a5,a5,-3
40380a74:	00f406a3          	sb	a5,13(s0)
40380a78:	00c12083          	lw	ra,12(sp)
40380a7c:	00812403          	lw	s0,8(sp)
40380a80:	01010113          	addi	sp,sp,16
40380a84:	00008067          	ret

40380a88 <z_reset_time_slice>:
40380a88:	ff010113          	addi	sp,sp,-16
40380a8c:	00912223          	sw	s1,4(sp)
40380a90:	3fc834b7          	lui	s1,0x3fc83
40380a94:	00812423          	sw	s0,8(sp)
40380a98:	ca84a403          	lw	s0,-856(s1) # 3fc82ca8 <slice_ticks>
40380a9c:	00112623          	sw	ra,12(sp)
40380aa0:	02040863          	beqz	s0,40380ad0 <z_reset_time_slice+0x48>
40380aa4:	28c010ef          	jal	ra,40381d30 <sys_clock_elapsed>
40380aa8:	00a40433          	add	s0,s0,a0
40380aac:	3fc837b7          	lui	a5,0x3fc83
40380ab0:	e087a023          	sw	s0,-512(a5) # 3fc82e00 <_kernel+0x10>
40380ab4:	00812403          	lw	s0,8(sp)
40380ab8:	ca84a503          	lw	a0,-856(s1)
40380abc:	00c12083          	lw	ra,12(sp)
40380ac0:	00412483          	lw	s1,4(sp)
40380ac4:	00000593          	li	a1,0
40380ac8:	01010113          	addi	sp,sp,16
40380acc:	4f50006f          	j	403817c0 <z_set_timeout_expiry>
40380ad0:	00c12083          	lw	ra,12(sp)
40380ad4:	00812403          	lw	s0,8(sp)
40380ad8:	00412483          	lw	s1,4(sp)
40380adc:	01010113          	addi	sp,sp,16
40380ae0:	00008067          	ret

40380ae4 <z_swap_irqlock>:
40380ae4:	fe010113          	addi	sp,sp,-32
40380ae8:	00812c23          	sw	s0,24(sp)
40380aec:	3fc83437          	lui	s0,0x3fc83
40380af0:	00912a23          	sw	s1,20(sp)
40380af4:	00112e23          	sw	ra,28(sp)
40380af8:	01212823          	sw	s2,16(sp)
40380afc:	df040793          	addi	a5,s0,-528 # 3fc82df0 <_kernel>
40380b00:	0087a583          	lw	a1,8(a5)
40380b04:	ff500713          	li	a4,-11
40380b08:	00050493          	mv	s1,a0
40380b0c:	06e5ac23          	sw	a4,120(a1)
40380b10:	30047773          	csrrci	a4,mstatus,8
40380b14:	0187a903          	lw	s2,24(a5)
40380b18:	00b12623          	sw	a1,12(sp)
40380b1c:	df040413          	addi	s0,s0,-528
40380b20:	03258063          	beq	a1,s2,40380b40 <z_swap_irqlock+0x5c>
40380b24:	00090513          	mv	a0,s2
40380b28:	01242423          	sw	s2,8(s0)
40380b2c:	f5dff0ef          	jal	ra,40380a88 <z_reset_time_slice>
40380b30:	00c12583          	lw	a1,12(sp)
40380b34:	07c92503          	lw	a0,124(s2)
40380b38:	01c92097          	auipc	ra,0x1c92
40380b3c:	648080e7          	jalr	1608(ra) # 42013180 <z_riscv_switch>
40380b40:	0084f493          	andi	s1,s1,8
40380b44:	3004a073          	csrs	mstatus,s1
40380b48:	00842783          	lw	a5,8(s0)
40380b4c:	01c12083          	lw	ra,28(sp)
40380b50:	01812403          	lw	s0,24(sp)
40380b54:	0787a503          	lw	a0,120(a5)
40380b58:	01412483          	lw	s1,20(sp)
40380b5c:	01012903          	lw	s2,16(sp)
40380b60:	02010113          	addi	sp,sp,32
40380b64:	00008067          	ret

40380b68 <z_swap>:
40380b68:	fe010113          	addi	sp,sp,-32
40380b6c:	00812c23          	sw	s0,24(sp)
40380b70:	3fc83437          	lui	s0,0x3fc83
40380b74:	00912a23          	sw	s1,20(sp)
40380b78:	df040793          	addi	a5,s0,-528 # 3fc82df0 <_kernel>
40380b7c:	00112e23          	sw	ra,28(sp)
40380b80:	01212823          	sw	s2,16(sp)
40380b84:	00058493          	mv	s1,a1
40380b88:	0087a583          	lw	a1,8(a5)
40380b8c:	ff500793          	li	a5,-11
40380b90:	df040413          	addi	s0,s0,-528
40380b94:	06f5ac23          	sw	a5,120(a1)
40380b98:	3fc837b7          	lui	a5,0x3fc83
40380b9c:	e1478793          	addi	a5,a5,-492 # 3fc82e14 <sched_spinlock>
40380ba0:	00a78463          	beq	a5,a0,40380ba8 <z_swap+0x40>
40380ba4:	300477f3          	csrrci	a5,mstatus,8
40380ba8:	01842903          	lw	s2,24(s0)
40380bac:	00b12623          	sw	a1,12(sp)
40380bb0:	03258063          	beq	a1,s2,40380bd0 <z_swap+0x68>
40380bb4:	00090513          	mv	a0,s2
40380bb8:	01242423          	sw	s2,8(s0)
40380bbc:	ecdff0ef          	jal	ra,40380a88 <z_reset_time_slice>
40380bc0:	00c12583          	lw	a1,12(sp)
40380bc4:	07c92503          	lw	a0,124(s2)
40380bc8:	01c92097          	auipc	ra,0x1c92
40380bcc:	5b8080e7          	jalr	1464(ra) # 42013180 <z_riscv_switch>
40380bd0:	0084f493          	andi	s1,s1,8
40380bd4:	3004a073          	csrs	mstatus,s1
40380bd8:	00842783          	lw	a5,8(s0)
40380bdc:	01c12083          	lw	ra,28(sp)
40380be0:	01812403          	lw	s0,24(sp)
40380be4:	0787a503          	lw	a0,120(a5)
40380be8:	01412483          	lw	s1,20(sp)
40380bec:	01012903          	lw	s2,16(sp)
40380bf0:	02010113          	addi	sp,sp,32
40380bf4:	00008067          	ret

40380bf8 <update_cache>:
40380bf8:	ff010113          	addi	sp,sp,-16
40380bfc:	00812423          	sw	s0,8(sp)
40380c00:	3fc83437          	lui	s0,0x3fc83
40380c04:	df040793          	addi	a5,s0,-528 # 3fc82df0 <_kernel>
40380c08:	00112623          	sw	ra,12(sp)
40380c0c:	00912223          	sw	s1,4(sp)
40380c10:	01c7a483          	lw	s1,28(a5)
40380c14:	3fc837b7          	lui	a5,0x3fc83
40380c18:	e0c78793          	addi	a5,a5,-500 # 3fc82e0c <_kernel+0x1c>
40380c1c:	df040413          	addi	s0,s0,-528
40380c20:	00f48463          	beq	s1,a5,40380c28 <update_cache+0x30>
40380c24:	00049463          	bnez	s1,40380c2c <update_cache+0x34>
40380c28:	00c42483          	lw	s1,12(s0)
40380c2c:	00842783          	lw	a5,8(s0)
40380c30:	00051e63          	bnez	a0,40380c4c <update_cache+0x54>
40380c34:	00d7c703          	lbu	a4,13(a5)
40380c38:	01f77713          	andi	a4,a4,31
40380c3c:	00071863          	bnez	a4,40380c4c <update_cache+0x54>
40380c40:	00e7d683          	lhu	a3,14(a5)
40380c44:	07f00713          	li	a4,127
40380c48:	00d76a63          	bltu	a4,a3,40380c5c <update_cache+0x64>
40380c4c:	00f48663          	beq	s1,a5,40380c58 <update_cache+0x60>
40380c50:	00048513          	mv	a0,s1
40380c54:	e35ff0ef          	jal	ra,40380a88 <z_reset_time_slice>
40380c58:	00048793          	mv	a5,s1
40380c5c:	00f42c23          	sw	a5,24(s0)
40380c60:	00c12083          	lw	ra,12(sp)
40380c64:	00812403          	lw	s0,8(sp)
40380c68:	00412483          	lw	s1,4(sp)
40380c6c:	01010113          	addi	sp,sp,16
40380c70:	00008067          	ret

40380c74 <move_thread_to_end_of_prio_q>:
40380c74:	ff010113          	addi	sp,sp,-16
40380c78:	00812423          	sw	s0,8(sp)
40380c7c:	00112623          	sw	ra,12(sp)
40380c80:	00d54783          	lbu	a5,13(a0)
40380c84:	00050413          	mv	s0,a0
40380c88:	01879713          	slli	a4,a5,0x18
40380c8c:	41875713          	srai	a4,a4,0x18
40380c90:	00075863          	bgez	a4,40380ca0 <move_thread_to_end_of_prio_q+0x2c>
40380c94:	07f7f793          	andi	a5,a5,127
40380c98:	00f506a3          	sb	a5,13(a0)
40380c9c:	d9dff0ef          	jal	ra,40380a38 <sys_dlist_remove>
40380ca0:	00d44783          	lbu	a5,13(s0)
40380ca4:	3fc83737          	lui	a4,0x3fc83
40380ca8:	3fc836b7          	lui	a3,0x3fc83
40380cac:	f807e793          	ori	a5,a5,-128
40380cb0:	00f406a3          	sb	a5,13(s0)
40380cb4:	df070793          	addi	a5,a4,-528 # 3fc82df0 <_kernel>
40380cb8:	01c7a783          	lw	a5,28(a5)
40380cbc:	e0c68693          	addi	a3,a3,-500 # 3fc82e0c <_kernel+0x1c>
40380cc0:	df070713          	addi	a4,a4,-528
40380cc4:	00d79463          	bne	a5,a3,40380ccc <move_thread_to_end_of_prio_q+0x58>
40380cc8:	00000793          	li	a5,0
40380ccc:	02072603          	lw	a2,32(a4)
40380cd0:	00079c63          	bnez	a5,40380ce8 <move_thread_to_end_of_prio_q+0x74>
40380cd4:	00d42023          	sw	a3,0(s0)
40380cd8:	00c42223          	sw	a2,4(s0)
40380cdc:	00862023          	sw	s0,0(a2)
40380ce0:	02872023          	sw	s0,32(a4)
40380ce4:	0280006f          	j	40380d0c <move_thread_to_end_of_prio_q+0x98>
40380ce8:	00e40583          	lb	a1,14(s0)
40380cec:	00e78503          	lb	a0,14(a5)
40380cf0:	02a58c63          	beq	a1,a0,40380d28 <move_thread_to_end_of_prio_q+0xb4>
40380cf4:	02a5da63          	bge	a1,a0,40380d28 <move_thread_to_end_of_prio_q+0xb4>
40380cf8:	0047a683          	lw	a3,4(a5)
40380cfc:	00f42023          	sw	a5,0(s0)
40380d00:	00d42223          	sw	a3,4(s0)
40380d04:	0086a023          	sw	s0,0(a3)
40380d08:	0087a223          	sw	s0,4(a5)
40380d0c:	00872503          	lw	a0,8(a4)
40380d10:	00c12083          	lw	ra,12(sp)
40380d14:	40850533          	sub	a0,a0,s0
40380d18:	00812403          	lw	s0,8(sp)
40380d1c:	00153513          	seqz	a0,a0
40380d20:	01010113          	addi	sp,sp,16
40380d24:	ed5ff06f          	j	40380bf8 <update_cache>
40380d28:	faf606e3          	beq	a2,a5,40380cd4 <move_thread_to_end_of_prio_q+0x60>
40380d2c:	0007a783          	lw	a5,0(a5)
40380d30:	fa1ff06f          	j	40380cd0 <move_thread_to_end_of_prio_q+0x5c>

40380d34 <ready_thread>:
40380d34:	00d54703          	lbu	a4,13(a0)
40380d38:	01871793          	slli	a5,a4,0x18
40380d3c:	4187d793          	srai	a5,a5,0x18
40380d40:	0807c863          	bltz	a5,40380dd0 <ready_thread+0x9c>
40380d44:	01f77793          	andi	a5,a4,31
40380d48:	08079463          	bnez	a5,40380dd0 <ready_thread+0x9c>
40380d4c:	01852783          	lw	a5,24(a0)
40380d50:	08079063          	bnez	a5,40380dd0 <ready_thread+0x9c>
40380d54:	f8076713          	ori	a4,a4,-128
40380d58:	00e506a3          	sb	a4,13(a0)
40380d5c:	3fc83737          	lui	a4,0x3fc83
40380d60:	df070693          	addi	a3,a4,-528 # 3fc82df0 <_kernel>
40380d64:	01c6a603          	lw	a2,28(a3)
40380d68:	3fc836b7          	lui	a3,0x3fc83
40380d6c:	e0c68693          	addi	a3,a3,-500 # 3fc82e0c <_kernel+0x1c>
40380d70:	df070713          	addi	a4,a4,-528
40380d74:	00d60463          	beq	a2,a3,40380d7c <ready_thread+0x48>
40380d78:	00060793          	mv	a5,a2
40380d7c:	02072603          	lw	a2,32(a4)
40380d80:	00079c63          	bnez	a5,40380d98 <ready_thread+0x64>
40380d84:	00d52023          	sw	a3,0(a0)
40380d88:	00c52223          	sw	a2,4(a0)
40380d8c:	00a62023          	sw	a0,0(a2)
40380d90:	02a72023          	sw	a0,32(a4)
40380d94:	0280006f          	j	40380dbc <ready_thread+0x88>
40380d98:	00e50583          	lb	a1,14(a0)
40380d9c:	00e78803          	lb	a6,14(a5)
40380da0:	03058263          	beq	a1,a6,40380dc4 <ready_thread+0x90>
40380da4:	0305d063          	bge	a1,a6,40380dc4 <ready_thread+0x90>
40380da8:	0047a703          	lw	a4,4(a5)
40380dac:	00f52023          	sw	a5,0(a0)
40380db0:	00e52223          	sw	a4,4(a0)
40380db4:	00a72023          	sw	a0,0(a4)
40380db8:	00a7a223          	sw	a0,4(a5)
40380dbc:	00000513          	li	a0,0
40380dc0:	e39ff06f          	j	40380bf8 <update_cache>
40380dc4:	fcc780e3          	beq	a5,a2,40380d84 <ready_thread+0x50>
40380dc8:	0007a783          	lw	a5,0(a5)
40380dcc:	fb5ff06f          	j	40380d80 <ready_thread+0x4c>
40380dd0:	00008067          	ret

40380dd4 <z_thread_timeout>:
40380dd4:	fe010113          	addi	sp,sp,-32
40380dd8:	00112e23          	sw	ra,28(sp)
40380ddc:	00812c23          	sw	s0,24(sp)
40380de0:	00912a23          	sw	s1,20(sp)
40380de4:	300474f3          	csrrci	s1,mstatus,8
40380de8:	ff554783          	lbu	a5,-11(a0)
40380dec:	0287f793          	andi	a5,a5,40
40380df0:	02079863          	bnez	a5,40380e20 <z_thread_timeout+0x4c>
40380df4:	00050413          	mv	s0,a0
40380df8:	ff042783          	lw	a5,-16(s0)
40380dfc:	fe850513          	addi	a0,a0,-24
40380e00:	00078863          	beqz	a5,40380e10 <z_thread_timeout+0x3c>
40380e04:	00a12623          	sw	a0,12(sp)
40380e08:	c4dff0ef          	jal	ra,40380a54 <unpend_thread_no_timeout>
40380e0c:	00c12503          	lw	a0,12(sp)
40380e10:	ff544783          	lbu	a5,-11(s0)
40380e14:	feb7f793          	andi	a5,a5,-21
40380e18:	fef40aa3          	sb	a5,-11(s0)
40380e1c:	f19ff0ef          	jal	ra,40380d34 <ready_thread>
40380e20:	0084f493          	andi	s1,s1,8
40380e24:	3004a073          	csrs	mstatus,s1
40380e28:	01c12083          	lw	ra,28(sp)
40380e2c:	01812403          	lw	s0,24(sp)
40380e30:	01412483          	lw	s1,20(sp)
40380e34:	02010113          	addi	sp,sp,32
40380e38:	00008067          	ret

40380e3c <unready_thread>:
40380e3c:	ff010113          	addi	sp,sp,-16
40380e40:	00812423          	sw	s0,8(sp)
40380e44:	00112623          	sw	ra,12(sp)
40380e48:	00d54783          	lbu	a5,13(a0)
40380e4c:	00050413          	mv	s0,a0
40380e50:	01879713          	slli	a4,a5,0x18
40380e54:	41875713          	srai	a4,a4,0x18
40380e58:	00075863          	bgez	a4,40380e68 <unready_thread+0x2c>
40380e5c:	07f7f793          	andi	a5,a5,127
40380e60:	00f506a3          	sb	a5,13(a0)
40380e64:	bd5ff0ef          	jal	ra,40380a38 <sys_dlist_remove>
40380e68:	3fc837b7          	lui	a5,0x3fc83
40380e6c:	df87a503          	lw	a0,-520(a5) # 3fc82df8 <_kernel+0x8>
40380e70:	00c12083          	lw	ra,12(sp)
40380e74:	40850533          	sub	a0,a0,s0
40380e78:	00812403          	lw	s0,8(sp)
40380e7c:	00153513          	seqz	a0,a0
40380e80:	01010113          	addi	sp,sp,16
40380e84:	d75ff06f          	j	40380bf8 <update_cache>

40380e88 <k_sched_time_slice_set>:
40380e88:	ff010113          	addi	sp,sp,-16
40380e8c:	00112623          	sw	ra,12(sp)
40380e90:	00812423          	sw	s0,8(sp)
40380e94:	30047473          	csrrci	s0,mstatus,8
40380e98:	00a05863          	blez	a0,40380ea8 <k_sched_time_slice_set+0x20>
40380e9c:	00200793          	li	a5,2
40380ea0:	00f55463          	bge	a0,a5,40380ea8 <k_sched_time_slice_set+0x20>
40380ea4:	00200513          	li	a0,2
40380ea8:	3fc837b7          	lui	a5,0x3fc83
40380eac:	df078793          	addi	a5,a5,-528 # 3fc82df0 <_kernel>
40380eb0:	3fc83737          	lui	a4,0x3fc83
40380eb4:	caa72423          	sw	a0,-856(a4) # 3fc82ca8 <slice_ticks>
40380eb8:	0087a503          	lw	a0,8(a5)
40380ebc:	3fc83737          	lui	a4,0x3fc83
40380ec0:	0007a823          	sw	zero,16(a5)
40380ec4:	cab72223          	sw	a1,-860(a4) # 3fc82ca4 <slice_max_prio>
40380ec8:	00847413          	andi	s0,s0,8
40380ecc:	bbdff0ef          	jal	ra,40380a88 <z_reset_time_slice>
40380ed0:	30042073          	csrs	mstatus,s0
40380ed4:	00c12083          	lw	ra,12(sp)
40380ed8:	00812403          	lw	s0,8(sp)
40380edc:	01010113          	addi	sp,sp,16
40380ee0:	00008067          	ret

40380ee4 <z_time_slice>:
40380ee4:	fe010113          	addi	sp,sp,-32
40380ee8:	00112e23          	sw	ra,28(sp)
40380eec:	00812c23          	sw	s0,24(sp)
40380ef0:	00050713          	mv	a4,a0
40380ef4:	30047473          	csrrci	s0,mstatus,8
40380ef8:	3fc83637          	lui	a2,0x3fc83
40380efc:	ca862603          	lw	a2,-856(a2) # 3fc82ca8 <slice_ticks>
40380f00:	3fc837b7          	lui	a5,0x3fc83
40380f04:	df078693          	addi	a3,a5,-528 # 3fc82df0 <_kernel>
40380f08:	0086a503          	lw	a0,8(a3)
40380f0c:	df078793          	addi	a5,a5,-528
40380f10:	06060a63          	beqz	a2,40380f84 <z_time_slice+0xa0>
40380f14:	00e55583          	lhu	a1,14(a0)
40380f18:	07f00613          	li	a2,127
40380f1c:	06b66463          	bltu	a2,a1,40380f84 <z_time_slice+0xa0>
40380f20:	00d54603          	lbu	a2,13(a0)
40380f24:	01f67613          	andi	a2,a2,31
40380f28:	04061e63          	bnez	a2,40380f84 <z_time_slice+0xa0>
40380f2c:	3fc83637          	lui	a2,0x3fc83
40380f30:	00e50583          	lb	a1,14(a0)
40380f34:	ca462603          	lw	a2,-860(a2) # 3fc82ca4 <slice_max_prio>
40380f38:	04c5c663          	blt	a1,a2,40380f84 <z_time_slice+0xa0>
40380f3c:	3fc83637          	lui	a2,0x3fc83
40380f40:	cb860613          	addi	a2,a2,-840 # 3fc82cb8 <z_idle_threads>
40380f44:	04c50063          	beq	a0,a2,40380f84 <z_time_slice+0xa0>
40380f48:	0106a783          	lw	a5,16(a3)
40380f4c:	02f74663          	blt	a4,a5,40380f78 <z_time_slice+0x94>
40380f50:	00a12623          	sw	a0,12(sp)
40380f54:	d21ff0ef          	jal	ra,40380c74 <move_thread_to_end_of_prio_q>
40380f58:	00c12503          	lw	a0,12(sp)
40380f5c:	b2dff0ef          	jal	ra,40380a88 <z_reset_time_slice>
40380f60:	00847413          	andi	s0,s0,8
40380f64:	30042073          	csrs	mstatus,s0
40380f68:	01c12083          	lw	ra,28(sp)
40380f6c:	01812403          	lw	s0,24(sp)
40380f70:	02010113          	addi	sp,sp,32
40380f74:	00008067          	ret
40380f78:	40e787b3          	sub	a5,a5,a4
40380f7c:	00f6a823          	sw	a5,16(a3)
40380f80:	fe1ff06f          	j	40380f60 <z_time_slice+0x7c>
40380f84:	0007a823          	sw	zero,16(a5)
40380f88:	fd9ff06f          	j	40380f60 <z_time_slice+0x7c>

40380f8c <z_ready_thread>:
40380f8c:	ff010113          	addi	sp,sp,-16
40380f90:	00112623          	sw	ra,12(sp)
40380f94:	00812423          	sw	s0,8(sp)
40380f98:	30047473          	csrrci	s0,mstatus,8
40380f9c:	d99ff0ef          	jal	ra,40380d34 <ready_thread>
40380fa0:	00847413          	andi	s0,s0,8
40380fa4:	30042073          	csrs	mstatus,s0
40380fa8:	00c12083          	lw	ra,12(sp)
40380fac:	00812403          	lw	s0,8(sp)
40380fb0:	01010113          	addi	sp,sp,16
40380fb4:	00008067          	ret

40380fb8 <z_reschedule>:
40380fb8:	0085f713          	andi	a4,a1,8
40380fbc:	02070263          	beqz	a4,40380fe0 <z_reschedule+0x28>
40380fc0:	3fc837b7          	lui	a5,0x3fc83
40380fc4:	df078793          	addi	a5,a5,-528 # 3fc82df0 <_kernel>
40380fc8:	0007a683          	lw	a3,0(a5)
40380fcc:	00069a63          	bnez	a3,40380fe0 <z_reschedule+0x28>
40380fd0:	0187a683          	lw	a3,24(a5)
40380fd4:	0087a783          	lw	a5,8(a5)
40380fd8:	00f68463          	beq	a3,a5,40380fe0 <z_reschedule+0x28>
40380fdc:	b8dff06f          	j	40380b68 <z_swap>
40380fe0:	30072073          	csrs	mstatus,a4
40380fe4:	00008067          	ret

40380fe8 <z_sched_start>:
40380fe8:	300475f3          	csrrci	a1,mstatus,8
40380fec:	00d54703          	lbu	a4,13(a0)
40380ff0:	00477693          	andi	a3,a4,4
40380ff4:	00069863          	bnez	a3,40381004 <z_sched_start+0x1c>
40380ff8:	0085f593          	andi	a1,a1,8
40380ffc:	3005a073          	csrs	mstatus,a1
40381000:	00008067          	ret
40381004:	fe010113          	addi	sp,sp,-32
40381008:	00112e23          	sw	ra,28(sp)
4038100c:	ffb77713          	andi	a4,a4,-5
40381010:	00e506a3          	sb	a4,13(a0)
40381014:	00b12623          	sw	a1,12(sp)
40381018:	d1dff0ef          	jal	ra,40380d34 <ready_thread>
4038101c:	00c12583          	lw	a1,12(sp)
40381020:	01c12083          	lw	ra,28(sp)
40381024:	3fc83537          	lui	a0,0x3fc83
40381028:	e1450513          	addi	a0,a0,-492 # 3fc82e14 <sched_spinlock>
4038102c:	02010113          	addi	sp,sp,32
40381030:	f89ff06f          	j	40380fb8 <z_reschedule>

40381034 <z_reschedule_irqlock>:
40381034:	00857793          	andi	a5,a0,8
40381038:	00078a63          	beqz	a5,4038104c <z_reschedule_irqlock+0x18>
4038103c:	3fc83737          	lui	a4,0x3fc83
40381040:	df072703          	lw	a4,-528(a4) # 3fc82df0 <_kernel>
40381044:	00071463          	bnez	a4,4038104c <z_reschedule_irqlock+0x18>
40381048:	a9dff06f          	j	40380ae4 <z_swap_irqlock>
4038104c:	3007a073          	csrs	mstatus,a5
40381050:	00008067          	ret

40381054 <z_reschedule_unlocked>:
40381054:	30047573          	csrrci	a0,mstatus,8
40381058:	fddff06f          	j	40381034 <z_reschedule_irqlock>

4038105c <z_impl_k_thread_suspend>:
4038105c:	ff010113          	addi	sp,sp,-16
40381060:	00812423          	sw	s0,8(sp)
40381064:	00050413          	mv	s0,a0
40381068:	01850513          	addi	a0,a0,24
4038106c:	00112623          	sw	ra,12(sp)
40381070:	00912223          	sw	s1,4(sp)
40381074:	01212023          	sw	s2,0(sp)
40381078:	708000ef          	jal	ra,40381780 <z_abort_timeout>
4038107c:	30047973          	csrrci	s2,mstatus,8
40381080:	00d44783          	lbu	a5,13(s0)
40381084:	01879713          	slli	a4,a5,0x18
40381088:	41875713          	srai	a4,a4,0x18
4038108c:	00075a63          	bgez	a4,403810a0 <z_impl_k_thread_suspend+0x44>
40381090:	07f7f793          	andi	a5,a5,127
40381094:	00f406a3          	sb	a5,13(s0)
40381098:	00040513          	mv	a0,s0
4038109c:	99dff0ef          	jal	ra,40380a38 <sys_dlist_remove>
403810a0:	3fc834b7          	lui	s1,0x3fc83
403810a4:	df048493          	addi	s1,s1,-528 # 3fc82df0 <_kernel>
403810a8:	00d44783          	lbu	a5,13(s0)
403810ac:	0084a503          	lw	a0,8(s1)
403810b0:	00897913          	andi	s2,s2,8
403810b4:	0107e793          	ori	a5,a5,16
403810b8:	40850533          	sub	a0,a0,s0
403810bc:	00f406a3          	sb	a5,13(s0)
403810c0:	00153513          	seqz	a0,a0
403810c4:	b35ff0ef          	jal	ra,40380bf8 <update_cache>
403810c8:	30092073          	csrs	mstatus,s2
403810cc:	0084a783          	lw	a5,8(s1)
403810d0:	00879e63          	bne	a5,s0,403810ec <z_impl_k_thread_suspend+0x90>
403810d4:	00812403          	lw	s0,8(sp)
403810d8:	00c12083          	lw	ra,12(sp)
403810dc:	00412483          	lw	s1,4(sp)
403810e0:	00012903          	lw	s2,0(sp)
403810e4:	01010113          	addi	sp,sp,16
403810e8:	f6dff06f          	j	40381054 <z_reschedule_unlocked>
403810ec:	00c12083          	lw	ra,12(sp)
403810f0:	00812403          	lw	s0,8(sp)
403810f4:	00412483          	lw	s1,4(sp)
403810f8:	00012903          	lw	s2,0(sp)
403810fc:	01010113          	addi	sp,sp,16
40381100:	00008067          	ret

40381104 <k_sched_lock>:
40381104:	300477f3          	csrrci	a5,mstatus,8
40381108:	3fc83737          	lui	a4,0x3fc83
4038110c:	df872683          	lw	a3,-520(a4) # 3fc82df8 <_kernel+0x8>
40381110:	00f6c703          	lbu	a4,15(a3)
40381114:	fff70713          	addi	a4,a4,-1
40381118:	00e687a3          	sb	a4,15(a3)
4038111c:	0087f793          	andi	a5,a5,8
40381120:	3007a073          	csrs	mstatus,a5
40381124:	00008067          	ret

40381128 <k_sched_unlock>:
40381128:	ff010113          	addi	sp,sp,-16
4038112c:	00112623          	sw	ra,12(sp)
40381130:	00812423          	sw	s0,8(sp)
40381134:	30047473          	csrrci	s0,mstatus,8
40381138:	3fc837b7          	lui	a5,0x3fc83
4038113c:	df87a703          	lw	a4,-520(a5) # 3fc82df8 <_kernel+0x8>
40381140:	00000513          	li	a0,0
40381144:	00847413          	andi	s0,s0,8
40381148:	00f74783          	lbu	a5,15(a4)
4038114c:	00178793          	addi	a5,a5,1
40381150:	00f707a3          	sb	a5,15(a4)
40381154:	aa5ff0ef          	jal	ra,40380bf8 <update_cache>
40381158:	30042073          	csrs	mstatus,s0
4038115c:	00812403          	lw	s0,8(sp)
40381160:	00c12083          	lw	ra,12(sp)
40381164:	01010113          	addi	sp,sp,16
40381168:	eedff06f          	j	40381054 <z_reschedule_unlocked>

4038116c <z_swap_next_thread>:
4038116c:	3fc837b7          	lui	a5,0x3fc83
40381170:	e087a503          	lw	a0,-504(a5) # 3fc82e08 <_kernel+0x18>
40381174:	00008067          	ret

40381178 <z_get_next_switch_handle>:
40381178:	3fc837b7          	lui	a5,0x3fc83
4038117c:	df078793          	addi	a5,a5,-528 # 3fc82df0 <_kernel>
40381180:	0087a683          	lw	a3,8(a5)
40381184:	0187a703          	lw	a4,24(a5)
40381188:	06a6ae23          	sw	a0,124(a3)
4038118c:	07c72503          	lw	a0,124(a4)
40381190:	00e7a423          	sw	a4,8(a5)
40381194:	00008067          	ret

40381198 <z_sched_init>:
40381198:	3fc837b7          	lui	a5,0x3fc83
4038119c:	3fc83737          	lui	a4,0x3fc83
403811a0:	df078793          	addi	a5,a5,-528 # 3fc82df0 <_kernel>
403811a4:	e0c70713          	addi	a4,a4,-500 # 3fc82e0c <_kernel+0x1c>
403811a8:	00e7ae23          	sw	a4,28(a5)
403811ac:	02e7a023          	sw	a4,32(a5)
403811b0:	00000593          	li	a1,0
403811b4:	00000513          	li	a0,0
403811b8:	cd1ff06f          	j	40380e88 <k_sched_time_slice_set>

403811bc <z_impl_k_yield>:
403811bc:	ff010113          	addi	sp,sp,-16
403811c0:	00112623          	sw	ra,12(sp)
403811c4:	00812423          	sw	s0,8(sp)
403811c8:	00912223          	sw	s1,4(sp)
403811cc:	01212023          	sw	s2,0(sp)
403811d0:	30047973          	csrrci	s2,mstatus,8
403811d4:	3fc83437          	lui	s0,0x3fc83
403811d8:	df040493          	addi	s1,s0,-528 # 3fc82df0 <_kernel>
403811dc:	0084a503          	lw	a0,8(s1)
403811e0:	df040413          	addi	s0,s0,-528
403811e4:	00d54783          	lbu	a5,13(a0)
403811e8:	07f7f793          	andi	a5,a5,127
403811ec:	00f506a3          	sb	a5,13(a0)
403811f0:	849ff0ef          	jal	ra,40380a38 <sys_dlist_remove>
403811f4:	0084a783          	lw	a5,8(s1)
403811f8:	3fc836b7          	lui	a3,0x3fc83
403811fc:	e0c68693          	addi	a3,a3,-500 # 3fc82e0c <_kernel+0x1c>
40381200:	00d7c703          	lbu	a4,13(a5)
40381204:	f8076713          	ori	a4,a4,-128
40381208:	00e786a3          	sb	a4,13(a5)
4038120c:	01c4a703          	lw	a4,28(s1)
40381210:	00d71463          	bne	a4,a3,40381218 <z_impl_k_yield+0x5c>
40381214:	00000713          	li	a4,0
40381218:	02042603          	lw	a2,32(s0)
4038121c:	00071c63          	bnez	a4,40381234 <z_impl_k_yield+0x78>
40381220:	00d7a023          	sw	a3,0(a5)
40381224:	00c7a223          	sw	a2,4(a5)
40381228:	00f62023          	sw	a5,0(a2)
4038122c:	02f42023          	sw	a5,32(s0)
40381230:	0280006f          	j	40381258 <z_impl_k_yield+0x9c>
40381234:	00e78583          	lb	a1,14(a5)
40381238:	00e70503          	lb	a0,14(a4)
4038123c:	04a58463          	beq	a1,a0,40381284 <z_impl_k_yield+0xc8>
40381240:	04a5d263          	bge	a1,a0,40381284 <z_impl_k_yield+0xc8>
40381244:	00472683          	lw	a3,4(a4)
40381248:	00e7a023          	sw	a4,0(a5)
4038124c:	00d7a223          	sw	a3,4(a5)
40381250:	00f6a023          	sw	a5,0(a3)
40381254:	00f72223          	sw	a5,4(a4)
40381258:	00100513          	li	a0,1
4038125c:	99dff0ef          	jal	ra,40380bf8 <update_cache>
40381260:	00812403          	lw	s0,8(sp)
40381264:	00c12083          	lw	ra,12(sp)
40381268:	00412483          	lw	s1,4(sp)
4038126c:	00090593          	mv	a1,s2
40381270:	00012903          	lw	s2,0(sp)
40381274:	3fc83537          	lui	a0,0x3fc83
40381278:	e1450513          	addi	a0,a0,-492 # 3fc82e14 <sched_spinlock>
4038127c:	01010113          	addi	sp,sp,16
40381280:	8e9ff06f          	j	40380b68 <z_swap>
40381284:	f8c70ee3          	beq	a4,a2,40381220 <z_impl_k_yield+0x64>
40381288:	00072703          	lw	a4,0(a4)
4038128c:	f91ff06f          	j	4038121c <z_impl_k_yield+0x60>

40381290 <z_tick_sleep>:
40381290:	fe010113          	addi	sp,sp,-32
40381294:	00112e23          	sw	ra,28(sp)
40381298:	00812c23          	sw	s0,24(sp)
4038129c:	00912a23          	sw	s1,20(sp)
403812a0:	01212823          	sw	s2,16(sp)
403812a4:	01312623          	sw	s3,12(sp)
403812a8:	01412423          	sw	s4,8(sp)
403812ac:	00b567b3          	or	a5,a0,a1
403812b0:	00079863          	bnez	a5,403812c0 <z_tick_sleep+0x30>
403812b4:	f09ff0ef          	jal	ra,403811bc <z_impl_k_yield>
403812b8:	00000513          	li	a0,0
403812bc:	0940006f          	j	40381350 <z_tick_sleep+0xc0>
403812c0:	fff00793          	li	a5,-1
403812c4:	00050493          	mv	s1,a0
403812c8:	00058913          	mv	s2,a1
403812cc:	0af5c263          	blt	a1,a5,40381370 <z_tick_sleep+0xe0>
403812d0:	00f59663          	bne	a1,a5,403812dc <z_tick_sleep+0x4c>
403812d4:	ffe00793          	li	a5,-2
403812d8:	08f56c63          	bltu	a0,a5,40381370 <z_tick_sleep+0xe0>
403812dc:	6d4000ef          	jal	ra,403819b0 <sys_clock_tick_get_32>
403812e0:	00a48433          	add	s0,s1,a0
403812e4:	30047a73          	csrrci	s4,mstatus,8
403812e8:	3fc839b7          	lui	s3,0x3fc83
403812ec:	df098993          	addi	s3,s3,-528 # 3fc82df0 <_kernel>
403812f0:	0089a503          	lw	a0,8(s3)
403812f4:	b49ff0ef          	jal	ra,40380e3c <unready_thread>
403812f8:	0089a503          	lw	a0,8(s3)
403812fc:	403815b7          	lui	a1,0x40381
40381300:	00048613          	mv	a2,s1
40381304:	00090693          	mv	a3,s2
40381308:	dd458593          	addi	a1,a1,-556 # 40380dd4 <z_thread_timeout>
4038130c:	01850513          	addi	a0,a0,24
40381310:	2c4000ef          	jal	ra,403815d4 <z_add_timeout>
40381314:	0089a703          	lw	a4,8(s3)
40381318:	3fc83537          	lui	a0,0x3fc83
4038131c:	000a0593          	mv	a1,s4
40381320:	00d74783          	lbu	a5,13(a4)
40381324:	e1450513          	addi	a0,a0,-492 # 3fc82e14 <sched_spinlock>
40381328:	0107e793          	ori	a5,a5,16
4038132c:	00f706a3          	sb	a5,13(a4)
40381330:	839ff0ef          	jal	ra,40380b68 <z_swap>
40381334:	67c000ef          	jal	ra,403819b0 <sys_clock_tick_get_32>
40381338:	40a407b3          	sub	a5,s0,a0
4038133c:	00f43433          	sltu	s0,s0,a5
40381340:	40800433          	neg	s0,s0
40381344:	f6041ae3          	bnez	s0,403812b8 <z_tick_sleep+0x28>
40381348:	00078513          	mv	a0,a5
4038134c:	f60786e3          	beqz	a5,403812b8 <z_tick_sleep+0x28>
40381350:	01c12083          	lw	ra,28(sp)
40381354:	01812403          	lw	s0,24(sp)
40381358:	01412483          	lw	s1,20(sp)
4038135c:	01012903          	lw	s2,16(sp)
40381360:	00c12983          	lw	s3,12(sp)
40381364:	00812a03          	lw	s4,8(sp)
40381368:	02010113          	addi	sp,sp,32
4038136c:	00008067          	ret
40381370:	ffe00413          	li	s0,-2
40381374:	40940433          	sub	s0,s0,s1
40381378:	f6dff06f          	j	403812e4 <z_tick_sleep+0x54>

4038137c <z_impl_k_sleep>:
4038137c:	fff00693          	li	a3,-1
40381380:	00d51463          	bne	a0,a3,40381388 <z_impl_k_sleep+0xc>
40381384:	00a58463          	beq	a1,a0,4038138c <z_impl_k_sleep+0x10>
40381388:	f09ff06f          	j	40381290 <z_tick_sleep>
4038138c:	ff010113          	addi	sp,sp,-16
40381390:	3fc837b7          	lui	a5,0x3fc83
40381394:	00112623          	sw	ra,12(sp)
40381398:	df87a503          	lw	a0,-520(a5) # 3fc82df8 <_kernel+0x8>
4038139c:	cc1ff0ef          	jal	ra,4038105c <z_impl_k_thread_suspend>
403813a0:	00c12083          	lw	ra,12(sp)
403813a4:	fff00513          	li	a0,-1
403813a8:	01010113          	addi	sp,sp,16
403813ac:	00008067          	ret

403813b0 <z_impl_z_current_get>:
403813b0:	3fc837b7          	lui	a5,0x3fc83
403813b4:	df87a503          	lw	a0,-520(a5) # 3fc82df8 <_kernel+0x8>
403813b8:	00008067          	ret

403813bc <z_thread_abort>:
403813bc:	fe010113          	addi	sp,sp,-32
403813c0:	00112e23          	sw	ra,28(sp)
403813c4:	00812c23          	sw	s0,24(sp)
403813c8:	00912a23          	sw	s1,20(sp)
403813cc:	01212823          	sw	s2,16(sp)
403813d0:	01312623          	sw	s3,12(sp)
403813d4:	01412423          	sw	s4,8(sp)
403813d8:	300479f3          	csrrci	s3,mstatus,8
403813dc:	00c54783          	lbu	a5,12(a0)
403813e0:	0089f913          	andi	s2,s3,8
403813e4:	0017f793          	andi	a5,a5,1
403813e8:	02078a63          	beqz	a5,4038141c <z_thread_abort+0x60>
403813ec:	30092073          	csrs	mstatus,s2
403813f0:	00400513          	li	a0,4
403813f4:	00000293          	li	t0,0
403813f8:	00000073          	ecall
403813fc:	01c12083          	lw	ra,28(sp)
40381400:	01812403          	lw	s0,24(sp)
40381404:	01412483          	lw	s1,20(sp)
40381408:	01012903          	lw	s2,16(sp)
4038140c:	00c12983          	lw	s3,12(sp)
40381410:	00812a03          	lw	s4,8(sp)
40381414:	02010113          	addi	sp,sp,32
40381418:	00008067          	ret
4038141c:	00d54783          	lbu	a5,13(a0)
40381420:	00050413          	mv	s0,a0
40381424:	0087f713          	andi	a4,a5,8
40381428:	00070663          	beqz	a4,40381434 <z_thread_abort+0x78>
4038142c:	30092073          	csrs	mstatus,s2
40381430:	fcdff06f          	j	403813fc <z_thread_abort+0x40>
40381434:	fdf7f713          	andi	a4,a5,-33
40381438:	00876713          	ori	a4,a4,8
4038143c:	01871693          	slli	a3,a4,0x18
40381440:	4186d693          	srai	a3,a3,0x18
40381444:	0606c263          	bltz	a3,403814a8 <z_thread_abort+0xec>
40381448:	00e506a3          	sb	a4,13(a0)
4038144c:	00842783          	lw	a5,8(s0)
40381450:	00078663          	beqz	a5,4038145c <z_thread_abort+0xa0>
40381454:	00040513          	mv	a0,s0
40381458:	dfcff0ef          	jal	ra,40380a54 <unpend_thread_no_timeout>
4038145c:	01840513          	addi	a0,s0,24
40381460:	320000ef          	jal	ra,40381780 <z_abort_timeout>
40381464:	06c40a13          	addi	s4,s0,108
40381468:	06c42483          	lw	s1,108(s0)
4038146c:	01448463          	beq	s1,s4,40381474 <z_thread_abort+0xb8>
40381470:	04049663          	bnez	s1,403814bc <z_thread_abort+0x100>
40381474:	00100513          	li	a0,1
40381478:	f80ff0ef          	jal	ra,40380bf8 <update_cache>
4038147c:	3fc837b7          	lui	a5,0x3fc83
40381480:	df078793          	addi	a5,a5,-528 # 3fc82df0 <_kernel>
40381484:	0087a703          	lw	a4,8(a5)
40381488:	fa8712e3          	bne	a4,s0,4038142c <z_thread_abort+0x70>
4038148c:	0007a783          	lw	a5,0(a5)
40381490:	f8079ee3          	bnez	a5,4038142c <z_thread_abort+0x70>
40381494:	3fc83537          	lui	a0,0x3fc83
40381498:	00098593          	mv	a1,s3
4038149c:	e1450513          	addi	a0,a0,-492 # 3fc82e14 <sched_spinlock>
403814a0:	ec8ff0ef          	jal	ra,40380b68 <z_swap>
403814a4:	f89ff06f          	j	4038142c <z_thread_abort+0x70>
403814a8:	05f7f793          	andi	a5,a5,95
403814ac:	0087e793          	ori	a5,a5,8
403814b0:	00f506a3          	sb	a5,13(a0)
403814b4:	d84ff0ef          	jal	ra,40380a38 <sys_dlist_remove>
403814b8:	f95ff06f          	j	4038144c <z_thread_abort+0x90>
403814bc:	00048513          	mv	a0,s1
403814c0:	d94ff0ef          	jal	ra,40380a54 <unpend_thread_no_timeout>
403814c4:	01848513          	addi	a0,s1,24
403814c8:	2b8000ef          	jal	ra,40381780 <z_abort_timeout>
403814cc:	00048513          	mv	a0,s1
403814d0:	0604ac23          	sw	zero,120(s1)
403814d4:	861ff0ef          	jal	ra,40380d34 <ready_thread>
403814d8:	f91ff06f          	j	40381468 <z_thread_abort+0xac>

403814dc <z_impl_k_thread_abort>:
403814dc:	ee1ff06f          	j	403813bc <z_thread_abort>

403814e0 <elapsed>:
403814e0:	3fc837b7          	lui	a5,0x3fc83
403814e4:	cac7a783          	lw	a5,-852(a5) # 3fc82cac <announce_remaining>
403814e8:	00079463          	bnez	a5,403814f0 <elapsed+0x10>
403814ec:	0450006f          	j	40381d30 <sys_clock_elapsed>
403814f0:	00000513          	li	a0,0
403814f4:	00008067          	ret

403814f8 <next_timeout>:
403814f8:	ff010113          	addi	sp,sp,-16
403814fc:	00112623          	sw	ra,12(sp)
40381500:	00812423          	sw	s0,8(sp)
40381504:	84c18793          	addi	a5,gp,-1972 # 3fc8508c <timeout_list>
40381508:	0007a403          	lw	s0,0(a5)
4038150c:	02f41a63          	bne	s0,a5,40381540 <next_timeout+0x48>
40381510:	fd1ff0ef          	jal	ra,403814e0 <elapsed>
40381514:	80000537          	lui	a0,0x80000
40381518:	fff54513          	not	a0,a0
4038151c:	3fc837b7          	lui	a5,0x3fc83
40381520:	e007a783          	lw	a5,-512(a5) # 3fc82e00 <_kernel+0x10>
40381524:	00078663          	beqz	a5,40381530 <next_timeout+0x38>
40381528:	00a7d463          	bge	a5,a0,40381530 <next_timeout+0x38>
4038152c:	00078513          	mv	a0,a5
40381530:	00c12083          	lw	ra,12(sp)
40381534:	00812403          	lw	s0,8(sp)
40381538:	01010113          	addi	sp,sp,16
4038153c:	00008067          	ret
40381540:	fa1ff0ef          	jal	ra,403814e0 <elapsed>
40381544:	fc0408e3          	beqz	s0,40381514 <next_timeout+0x1c>
40381548:	01042703          	lw	a4,16(s0)
4038154c:	01442783          	lw	a5,20(s0)
40381550:	41f55693          	srai	a3,a0,0x1f
40381554:	40a70533          	sub	a0,a4,a0
40381558:	00a73733          	sltu	a4,a4,a0
4038155c:	40d787b3          	sub	a5,a5,a3
40381560:	40e787b3          	sub	a5,a5,a4
40381564:	faf048e3          	bgtz	a5,40381514 <next_timeout+0x1c>
40381568:	00079463          	bnez	a5,40381570 <next_timeout+0x78>
4038156c:	fa0544e3          	bltz	a0,40381514 <next_timeout+0x1c>
40381570:	fa07d6e3          	bgez	a5,4038151c <next_timeout+0x24>
40381574:	00000513          	li	a0,0
40381578:	fa5ff06f          	j	4038151c <next_timeout+0x24>

4038157c <remove_timeout>:
4038157c:	02050e63          	beqz	a0,403815b8 <remove_timeout+0x3c>
40381580:	8501a783          	lw	a5,-1968(gp) # 3fc85090 <timeout_list+0x4>
40381584:	02f50a63          	beq	a0,a5,403815b8 <remove_timeout+0x3c>
40381588:	00052703          	lw	a4,0(a0) # 80000000 <CONFIG_SYSTEM_WORKQUEUE_PRIORITY+0x80000001>
4038158c:	02070663          	beqz	a4,403815b8 <remove_timeout+0x3c>
40381590:	01072783          	lw	a5,16(a4)
40381594:	01052683          	lw	a3,16(a0)
40381598:	01452583          	lw	a1,20(a0)
4038159c:	01472603          	lw	a2,20(a4)
403815a0:	00d786b3          	add	a3,a5,a3
403815a4:	00f6b7b3          	sltu	a5,a3,a5
403815a8:	00b60633          	add	a2,a2,a1
403815ac:	00c787b3          	add	a5,a5,a2
403815b0:	00d72823          	sw	a3,16(a4)
403815b4:	00f72a23          	sw	a5,20(a4)
403815b8:	00452703          	lw	a4,4(a0)
403815bc:	00052783          	lw	a5,0(a0)
403815c0:	00f72023          	sw	a5,0(a4)
403815c4:	00e7a223          	sw	a4,4(a5)
403815c8:	00052023          	sw	zero,0(a0)
403815cc:	00052223          	sw	zero,4(a0)
403815d0:	00008067          	ret

403815d4 <z_add_timeout>:
403815d4:	fe010113          	addi	sp,sp,-32
403815d8:	00812c23          	sw	s0,24(sp)
403815dc:	01212823          	sw	s2,16(sp)
403815e0:	01312623          	sw	s3,12(sp)
403815e4:	00068713          	mv	a4,a3
403815e8:	00068993          	mv	s3,a3
403815ec:	00112e23          	sw	ra,28(sp)
403815f0:	00912a23          	sw	s1,20(sp)
403815f4:	fff00693          	li	a3,-1
403815f8:	00050413          	mv	s0,a0
403815fc:	00060913          	mv	s2,a2
40381600:	00060793          	mv	a5,a2
40381604:	00d61463          	bne	a2,a3,4038160c <z_add_timeout+0x38>
40381608:	12c98c63          	beq	s3,a2,40381740 <z_add_timeout+0x16c>
4038160c:	00b42423          	sw	a1,8(s0)
40381610:	300474f3          	csrrci	s1,mstatus,8
40381614:	08075663          	bgez	a4,403816a0 <z_add_timeout+0xcc>
40381618:	fff00693          	li	a3,-1
4038161c:	00d71663          	bne	a4,a3,40381628 <z_add_timeout+0x54>
40381620:	ffe00713          	li	a4,-2
40381624:	06f76e63          	bltu	a4,a5,403816a0 <z_add_timeout+0xcc>
40381628:	3fc837b7          	lui	a5,0x3fc83
4038162c:	c787a703          	lw	a4,-904(a5) # 3fc82c78 <curr_tick>
40381630:	c7c7a783          	lw	a5,-900(a5)
40381634:	ffe00693          	li	a3,-2
40381638:	40e68733          	sub	a4,a3,a4
4038163c:	00e6b6b3          	sltu	a3,a3,a4
40381640:	fff7c793          	not	a5,a5
40381644:	40d787b3          	sub	a5,a5,a3
40381648:	41270533          	sub	a0,a4,s2
4038164c:	00a73733          	sltu	a4,a4,a0
40381650:	413787b3          	sub	a5,a5,s3
40381654:	40e787b3          	sub	a5,a5,a4
40381658:	00f04a63          	bgtz	a5,4038166c <z_add_timeout+0x98>
4038165c:	00079463          	bnez	a5,40381664 <z_add_timeout+0x90>
40381660:	00051663          	bnez	a0,4038166c <z_add_timeout+0x98>
40381664:	00100513          	li	a0,1
40381668:	00000793          	li	a5,0
4038166c:	00f42a23          	sw	a5,20(s0)
40381670:	84c1a783          	lw	a5,-1972(gp) # 3fc8508c <timeout_list>
40381674:	00a42823          	sw	a0,16(s0)
40381678:	84c18713          	addi	a4,gp,-1972 # 3fc8508c <timeout_list>
4038167c:	00e79463          	bne	a5,a4,40381684 <z_add_timeout+0xb0>
40381680:	00000793          	li	a5,0
40381684:	00472803          	lw	a6,4(a4)
40381688:	04079063          	bnez	a5,403816c8 <z_add_timeout+0xf4>
4038168c:	00e42023          	sw	a4,0(s0)
40381690:	01042223          	sw	a6,4(s0)
40381694:	00882023          	sw	s0,0(a6)
40381698:	00872223          	sw	s0,4(a4)
4038169c:	0740006f          	j	40381710 <z_add_timeout+0x13c>
403816a0:	e41ff0ef          	jal	ra,403814e0 <elapsed>
403816a4:	00190793          	addi	a5,s2,1
403816a8:	0127b933          	sltu	s2,a5,s2
403816ac:	41f55713          	srai	a4,a0,0x1f
403816b0:	01390933          	add	s2,s2,s3
403816b4:	00a78533          	add	a0,a5,a0
403816b8:	00f537b3          	sltu	a5,a0,a5
403816bc:	00e90933          	add	s2,s2,a4
403816c0:	012787b3          	add	a5,a5,s2
403816c4:	fa9ff06f          	j	4038166c <z_add_timeout+0x98>
403816c8:	0147a503          	lw	a0,20(a5)
403816cc:	01442583          	lw	a1,20(s0)
403816d0:	0107a683          	lw	a3,16(a5)
403816d4:	01042603          	lw	a2,16(s0)
403816d8:	00a5c663          	blt	a1,a0,403816e4 <z_add_timeout+0x110>
403816dc:	08b51063          	bne	a0,a1,4038175c <z_add_timeout+0x188>
403816e0:	06d67e63          	bgeu	a2,a3,4038175c <z_add_timeout+0x188>
403816e4:	40c68633          	sub	a2,a3,a2
403816e8:	00c6b6b3          	sltu	a3,a3,a2
403816ec:	40b50533          	sub	a0,a0,a1
403816f0:	40d50533          	sub	a0,a0,a3
403816f4:	0047a683          	lw	a3,4(a5)
403816f8:	00c7a823          	sw	a2,16(a5)
403816fc:	00a7aa23          	sw	a0,20(a5)
40381700:	00d42223          	sw	a3,4(s0)
40381704:	00f42023          	sw	a5,0(s0)
40381708:	0086a023          	sw	s0,0(a3)
4038170c:	0087a223          	sw	s0,4(a5)
40381710:	00072783          	lw	a5,0(a4)
40381714:	02e78263          	beq	a5,a4,40381738 <z_add_timeout+0x164>
40381718:	02f41063          	bne	s0,a5,40381738 <z_add_timeout+0x164>
4038171c:	dddff0ef          	jal	ra,403814f8 <next_timeout>
40381720:	00050863          	beqz	a0,40381730 <z_add_timeout+0x15c>
40381724:	3fc837b7          	lui	a5,0x3fc83
40381728:	e007a783          	lw	a5,-512(a5) # 3fc82e00 <_kernel+0x10>
4038172c:	00a78663          	beq	a5,a0,40381738 <z_add_timeout+0x164>
40381730:	00000593          	li	a1,0
40381734:	53c000ef          	jal	ra,40381c70 <sys_clock_set_timeout>
40381738:	0084f493          	andi	s1,s1,8
4038173c:	3004a073          	csrs	mstatus,s1
40381740:	01c12083          	lw	ra,28(sp)
40381744:	01812403          	lw	s0,24(sp)
40381748:	01412483          	lw	s1,20(sp)
4038174c:	01012903          	lw	s2,16(sp)
40381750:	00c12983          	lw	s3,12(sp)
40381754:	02010113          	addi	sp,sp,32
40381758:	00008067          	ret
4038175c:	40d606b3          	sub	a3,a2,a3
40381760:	00d63633          	sltu	a2,a2,a3
40381764:	40a585b3          	sub	a1,a1,a0
40381768:	40c585b3          	sub	a1,a1,a2
4038176c:	00d42823          	sw	a3,16(s0)
40381770:	00b42a23          	sw	a1,20(s0)
40381774:	f1078ce3          	beq	a5,a6,4038168c <z_add_timeout+0xb8>
40381778:	0007a783          	lw	a5,0(a5)
4038177c:	f0dff06f          	j	40381688 <z_add_timeout+0xb4>

40381780 <z_abort_timeout>:
40381780:	ff010113          	addi	sp,sp,-16
40381784:	00112623          	sw	ra,12(sp)
40381788:	00812423          	sw	s0,8(sp)
4038178c:	30047473          	csrrci	s0,mstatus,8
40381790:	00052783          	lw	a5,0(a0)
40381794:	02078263          	beqz	a5,403817b8 <z_abort_timeout+0x38>
40381798:	de5ff0ef          	jal	ra,4038157c <remove_timeout>
4038179c:	00000513          	li	a0,0
403817a0:	00847413          	andi	s0,s0,8
403817a4:	30042073          	csrs	mstatus,s0
403817a8:	00c12083          	lw	ra,12(sp)
403817ac:	00812403          	lw	s0,8(sp)
403817b0:	01010113          	addi	sp,sp,16
403817b4:	00008067          	ret
403817b8:	fea00513          	li	a0,-22
403817bc:	fe5ff06f          	j	403817a0 <z_abort_timeout+0x20>

403817c0 <z_set_timeout_expiry>:
403817c0:	fe010113          	addi	sp,sp,-32
403817c4:	00812c23          	sw	s0,24(sp)
403817c8:	00112e23          	sw	ra,28(sp)
403817cc:	00912a23          	sw	s1,20(sp)
403817d0:	00050413          	mv	s0,a0
403817d4:	00b12623          	sw	a1,12(sp)
403817d8:	300474f3          	csrrci	s1,mstatus,8
403817dc:	d1dff0ef          	jal	ra,403814f8 <next_timeout>
403817e0:	00100793          	li	a5,1
403817e4:	00a7dc63          	bge	a5,a0,403817fc <z_set_timeout_expiry+0x3c>
403817e8:	00854a63          	blt	a0,s0,403817fc <z_set_timeout_expiry+0x3c>
403817ec:	00c12583          	lw	a1,12(sp)
403817f0:	00a45463          	bge	s0,a0,403817f8 <z_set_timeout_expiry+0x38>
403817f4:	00040513          	mv	a0,s0
403817f8:	478000ef          	jal	ra,40381c70 <sys_clock_set_timeout>
403817fc:	0084f493          	andi	s1,s1,8
40381800:	3004a073          	csrs	mstatus,s1
40381804:	01c12083          	lw	ra,28(sp)
40381808:	01812403          	lw	s0,24(sp)
4038180c:	01412483          	lw	s1,20(sp)
40381810:	02010113          	addi	sp,sp,32
40381814:	00008067          	ret

40381818 <sys_clock_announce>:
40381818:	fd010113          	addi	sp,sp,-48
4038181c:	02812423          	sw	s0,40(sp)
40381820:	02112623          	sw	ra,44(sp)
40381824:	02912223          	sw	s1,36(sp)
40381828:	03212023          	sw	s2,32(sp)
4038182c:	01312e23          	sw	s3,28(sp)
40381830:	01412c23          	sw	s4,24(sp)
40381834:	00050413          	mv	s0,a0
40381838:	eacff0ef          	jal	ra,40380ee4 <z_time_slice>
4038183c:	300474f3          	csrrci	s1,mstatus,8
40381840:	84c1a503          	lw	a0,-1972(gp) # 3fc8508c <timeout_list>
40381844:	3fc83a37          	lui	s4,0x3fc83
40381848:	ca8a2623          	sw	s0,-852(s4) # 3fc82cac <announce_remaining>
4038184c:	84c18993          	addi	s3,gp,-1972 # 3fc8508c <timeout_list>
40381850:	01351463          	bne	a0,s3,40381858 <sys_clock_announce+0x40>
40381854:	00000513          	li	a0,0
40381858:	3fc83937          	lui	s2,0x3fc83
4038185c:	c7892703          	lw	a4,-904(s2) # 3fc82c78 <curr_tick>
40381860:	c7c92583          	lw	a1,-900(s2)
40381864:	caca2783          	lw	a5,-852(s4)
40381868:	0084f493          	andi	s1,s1,8
4038186c:	0a050263          	beqz	a0,40381910 <sys_clock_announce+0xf8>
40381870:	01452683          	lw	a3,20(a0)
40381874:	41f7d613          	srai	a2,a5,0x1f
40381878:	01052403          	lw	s0,16(a0)
4038187c:	00d64663          	blt	a2,a3,40381888 <sys_clock_announce+0x70>
40381880:	02c69263          	bne	a3,a2,403818a4 <sys_clock_announce+0x8c>
40381884:	0287f063          	bgeu	a5,s0,403818a4 <sys_clock_announce+0x8c>
40381888:	40f40833          	sub	a6,s0,a5
4038188c:	01043433          	sltu	s0,s0,a6
40381890:	40c686b3          	sub	a3,a3,a2
40381894:	408686b3          	sub	a3,a3,s0
40381898:	01052823          	sw	a6,16(a0)
4038189c:	00d52a23          	sw	a3,20(a0)
403818a0:	0700006f          	j	40381910 <sys_clock_announce+0xf8>
403818a4:	00e40733          	add	a4,s0,a4
403818a8:	41f45693          	srai	a3,s0,0x1f
403818ac:	008737b3          	sltu	a5,a4,s0
403818b0:	00b686b3          	add	a3,a3,a1
403818b4:	00d787b3          	add	a5,a5,a3
403818b8:	c6f92e23          	sw	a5,-900(s2)
403818bc:	00000813          	li	a6,0
403818c0:	00000793          	li	a5,0
403818c4:	00f52823          	sw	a5,16(a0)
403818c8:	01052a23          	sw	a6,20(a0)
403818cc:	c6e92c23          	sw	a4,-904(s2)
403818d0:	00a12623          	sw	a0,12(sp)
403818d4:	ca9ff0ef          	jal	ra,4038157c <remove_timeout>
403818d8:	3004a073          	csrs	mstatus,s1
403818dc:	00c12503          	lw	a0,12(sp)
403818e0:	00852783          	lw	a5,8(a0)
403818e4:	000780e7          	jalr	a5
403818e8:	300476f3          	csrrci	a3,mstatus,8
403818ec:	caca2783          	lw	a5,-852(s4)
403818f0:	0009a503          	lw	a0,0(s3)
403818f4:	00068493          	mv	s1,a3
403818f8:	408787b3          	sub	a5,a5,s0
403818fc:	cafa2623          	sw	a5,-852(s4)
40381900:	f5351ee3          	bne	a0,s3,4038185c <sys_clock_announce+0x44>
40381904:	c7892703          	lw	a4,-904(s2)
40381908:	c7c92583          	lw	a1,-900(s2)
4038190c:	0086f493          	andi	s1,a3,8
40381910:	00e78733          	add	a4,a5,a4
40381914:	41f7d693          	srai	a3,a5,0x1f
40381918:	00b686b3          	add	a3,a3,a1
4038191c:	00f737b3          	sltu	a5,a4,a5
40381920:	00d787b3          	add	a5,a5,a3
40381924:	c6e92c23          	sw	a4,-904(s2)
40381928:	c6f92e23          	sw	a5,-900(s2)
4038192c:	ca0a2623          	sw	zero,-852(s4)
40381930:	bc9ff0ef          	jal	ra,403814f8 <next_timeout>
40381934:	00000593          	li	a1,0
40381938:	338000ef          	jal	ra,40381c70 <sys_clock_set_timeout>
4038193c:	3004a073          	csrs	mstatus,s1
40381940:	02c12083          	lw	ra,44(sp)
40381944:	02812403          	lw	s0,40(sp)
40381948:	02412483          	lw	s1,36(sp)
4038194c:	02012903          	lw	s2,32(sp)
40381950:	01c12983          	lw	s3,28(sp)
40381954:	01812a03          	lw	s4,24(sp)
40381958:	03010113          	addi	sp,sp,48
4038195c:	00008067          	ret

40381960 <sys_clock_tick_get>:
40381960:	ff010113          	addi	sp,sp,-16
40381964:	00112623          	sw	ra,12(sp)
40381968:	00812423          	sw	s0,8(sp)
4038196c:	30047473          	csrrci	s0,mstatus,8
40381970:	b71ff0ef          	jal	ra,403814e0 <elapsed>
40381974:	3fc83737          	lui	a4,0x3fc83
40381978:	00050593          	mv	a1,a0
4038197c:	41f55793          	srai	a5,a0,0x1f
40381980:	c7872503          	lw	a0,-904(a4) # 3fc82c78 <curr_tick>
40381984:	c7c72703          	lw	a4,-900(a4)
40381988:	00847413          	andi	s0,s0,8
4038198c:	00a58533          	add	a0,a1,a0
40381990:	00b535b3          	sltu	a1,a0,a1
40381994:	00e787b3          	add	a5,a5,a4
40381998:	00f585b3          	add	a1,a1,a5
4038199c:	30042073          	csrs	mstatus,s0
403819a0:	00c12083          	lw	ra,12(sp)
403819a4:	00812403          	lw	s0,8(sp)
403819a8:	01010113          	addi	sp,sp,16
403819ac:	00008067          	ret

403819b0 <sys_clock_tick_get_32>:
403819b0:	ff010113          	addi	sp,sp,-16
403819b4:	00112623          	sw	ra,12(sp)
403819b8:	fa9ff0ef          	jal	ra,40381960 <sys_clock_tick_get>
403819bc:	00c12083          	lw	ra,12(sp)
403819c0:	01010113          	addi	sp,sp,16
403819c4:	00008067          	ret

403819c8 <z_impl_k_uptime_ticks>:
403819c8:	f99ff06f          	j	40381960 <sys_clock_tick_get>

403819cc <k_thread_system_pool_assign>:
403819cc:	a9018793          	addi	a5,gp,-1392 # 3fc852d0 <_system_heap>
403819d0:	08f52023          	sw	a5,128(a0)
403819d4:	00008067          	ret

403819d8 <boot_banner>:
403819d8:	3c000537          	lui	a0,0x3c000
403819dc:	56450513          	addi	a0,a0,1380 # 3c000564 <gpio_esp32_driver_api+0x34>
403819e0:	1280106f          	j	40382b08 <printk>

403819e4 <k_heap_init>:
403819e4:	00c50713          	addi	a4,a0,12
403819e8:	00e52623          	sw	a4,12(a0)
403819ec:	00e52823          	sw	a4,16(a0)
403819f0:	01c8f317          	auipc	t1,0x1c8f
403819f4:	99830067          	jr	-1640(t1) # 42010388 <sys_heap_init>

403819f8 <statics_init>:
403819f8:	ff010113          	addi	sp,sp,-16
403819fc:	00812423          	sw	s0,8(sp)
40381a00:	00912223          	sw	s1,4(sp)
40381a04:	00112623          	sw	ra,12(sp)
40381a08:	a9018413          	addi	s0,gp,-1392 # 3fc852d0 <_system_heap>
40381a0c:	aa418493          	addi	s1,gp,-1372 # 3fc852e4 <log_const_cbprintf_package>
40381a10:	00946e63          	bltu	s0,s1,40381a2c <statics_init+0x34>
40381a14:	00c12083          	lw	ra,12(sp)
40381a18:	00812403          	lw	s0,8(sp)
40381a1c:	00412483          	lw	s1,4(sp)
40381a20:	00000513          	li	a0,0
40381a24:	01010113          	addi	sp,sp,16
40381a28:	00008067          	ret
40381a2c:	00842603          	lw	a2,8(s0)
40381a30:	00442583          	lw	a1,4(s0)
40381a34:	00040513          	mv	a0,s0
40381a38:	01440413          	addi	s0,s0,20
40381a3c:	fa9ff0ef          	jal	ra,403819e4 <k_heap_init>
40381a40:	fd1ff06f          	j	40381a10 <statics_init+0x18>

40381a44 <esp_log_early_timestamp>:
40381a44:	ff010113          	addi	sp,sp,-16
40381a48:	00112623          	sw	ra,12(sp)
40381a4c:	f7dff0ef          	jal	ra,403819c8 <z_impl_k_uptime_ticks>
40381a50:	00c12083          	lw	ra,12(sp)
40381a54:	01010113          	addi	sp,sp,16
40381a58:	00008067          	ret

40381a5c <get_systimer_alarm>:
40381a5c:	3fc83537          	lui	a0,0x3fc83
40381a60:	00100593          	li	a1,1
40381a64:	ca050513          	addi	a0,a0,-864 # 3fc82ca0 <systimer_hal>
40381a68:	01c91317          	auipc	t1,0x1c91
40381a6c:	cb830067          	jr	-840(t1) # 42012720 <systimer_hal_get_counter_value>

40381a70 <set_systimer_alarm>:
40381a70:	ff010113          	addi	sp,sp,-16
40381a74:	00912223          	sw	s1,4(sp)
40381a78:	3fc834b7          	lui	s1,0x3fc83
40381a7c:	00812423          	sw	s0,8(sp)
40381a80:	01212023          	sw	s2,0(sp)
40381a84:	00058413          	mv	s0,a1
40381a88:	00050913          	mv	s2,a0
40381a8c:	00000613          	li	a2,0
40381a90:	ca048513          	addi	a0,s1,-864 # 3fc82ca0 <systimer_hal>
40381a94:	00000593          	li	a1,0
40381a98:	00112623          	sw	ra,12(sp)
40381a9c:	01c91097          	auipc	ra,0x1c91
40381aa0:	d18080e7          	jalr	-744(ra) # 420127b4 <systimer_hal_select_alarm_mode>
40381aa4:	ca04a683          	lw	a3,-864(s1)
40381aa8:	ff000737          	lui	a4,0xff000
40381aac:	fff70713          	addi	a4,a4,-1 # feffffff <CONFIG_SYSTEM_WORKQUEUE_PRIORITY+0xff000000>
40381ab0:	0006a783          	lw	a5,0(a3)
40381ab4:	00c41413          	slli	s0,s0,0xc
40381ab8:	00c45413          	srli	s0,s0,0xc
40381abc:	00e7f7b3          	and	a5,a5,a4
40381ac0:	00f6a023          	sw	a5,0(a3)
40381ac4:	ca04a783          	lw	a5,-864(s1)
40381ac8:	fff006b7          	lui	a3,0xfff00
40381acc:	01c7a703          	lw	a4,28(a5)
40381ad0:	00d77733          	and	a4,a4,a3
40381ad4:	00876733          	or	a4,a4,s0
40381ad8:	00e7ae23          	sw	a4,28(a5)
40381adc:	0327a023          	sw	s2,32(a5)
40381ae0:	00100713          	li	a4,1
40381ae4:	04e7a823          	sw	a4,80(a5)
40381ae8:	0007a703          	lw	a4,0(a5)
40381aec:	010006b7          	lui	a3,0x1000
40381af0:	00d76733          	or	a4,a4,a3
40381af4:	00e7a023          	sw	a4,0(a5)
40381af8:	ca04a703          	lw	a4,-864(s1)
40381afc:	06472783          	lw	a5,100(a4)
40381b00:	0017e793          	ori	a5,a5,1
40381b04:	06f72223          	sw	a5,100(a4)
40381b08:	00c12083          	lw	ra,12(sp)
40381b0c:	00812403          	lw	s0,8(sp)
40381b10:	00412483          	lw	s1,4(sp)
40381b14:	00012903          	lw	s2,0(sp)
40381b18:	01010113          	addi	sp,sp,16
40381b1c:	00008067          	ret

40381b20 <sys_clock_driver_init>:
40381b20:	40382637          	lui	a2,0x40382
40381b24:	ff010113          	addi	sp,sp,-16
40381b28:	00000713          	li	a4,0
40381b2c:	00000693          	li	a3,0
40381b30:	bd860613          	addi	a2,a2,-1064 # 40381bd8 <sys_timer_isr>
40381b34:	00000593          	li	a1,0
40381b38:	02500513          	li	a0,37
40381b3c:	00112623          	sw	ra,12(sp)
40381b40:	00812423          	sw	s0,8(sp)
40381b44:	01c91097          	auipc	ra,0x1c91
40381b48:	7a4080e7          	jalr	1956(ra) # 420132e8 <esp_intr_alloc>
40381b4c:	3fc83437          	lui	s0,0x3fc83
40381b50:	ca040513          	addi	a0,s0,-864 # 3fc82ca0 <systimer_hal>
40381b54:	01c91097          	auipc	ra,0x1c91
40381b58:	b80080e7          	jalr	-1152(ra) # 420126d4 <systimer_hal_init>
40381b5c:	00100613          	li	a2,1
40381b60:	ca040513          	addi	a0,s0,-864
40381b64:	00000593          	li	a1,0
40381b68:	01c91097          	auipc	ra,0x1c91
40381b6c:	ca4080e7          	jalr	-860(ra) # 4201280c <systimer_hal_connect_alarm_counter>
40381b70:	ca040513          	addi	a0,s0,-864
40381b74:	00100593          	li	a1,1
40381b78:	01c91097          	auipc	ra,0x1c91
40381b7c:	c18080e7          	jalr	-1000(ra) # 42012790 <systimer_hal_enable_counter>
40381b80:	00100693          	li	a3,1
40381b84:	00000613          	li	a2,0
40381b88:	ca040513          	addi	a0,s0,-864
40381b8c:	00100593          	li	a1,1
40381b90:	01c91097          	auipc	ra,0x1c91
40381b94:	ca8080e7          	jalr	-856(ra) # 42012838 <systimer_hal_counter_can_stall_by_cpu>
40381b98:	ec5ff0ef          	jal	ra,40381a5c <get_systimer_alarm>
40381b9c:	3fc83737          	lui	a4,0x3fc83
40381ba0:	00050793          	mv	a5,a0
40381ba4:	c6a72823          	sw	a0,-912(a4) # 3fc82c70 <last_count>
40381ba8:	00004537          	lui	a0,0x4
40381bac:	e8050513          	addi	a0,a0,-384 # 3e80 <_image_irom_start+0x724>
40381bb0:	00a78533          	add	a0,a5,a0
40381bb4:	00f537b3          	sltu	a5,a0,a5
40381bb8:	c6b72a23          	sw	a1,-908(a4)
40381bbc:	00b785b3          	add	a1,a5,a1
40381bc0:	eb1ff0ef          	jal	ra,40381a70 <set_systimer_alarm>
40381bc4:	00c12083          	lw	ra,12(sp)
40381bc8:	00812403          	lw	s0,8(sp)
40381bcc:	00000513          	li	a0,0
40381bd0:	01010113          	addi	sp,sp,16
40381bd4:	00008067          	ret

40381bd8 <sys_timer_isr>:
40381bd8:	3fc837b7          	lui	a5,0x3fc83
40381bdc:	ca07a703          	lw	a4,-864(a5) # 3fc82ca0 <systimer_hal>
40381be0:	fe010113          	addi	sp,sp,-32
40381be4:	00112e23          	sw	ra,28(sp)
40381be8:	00812c23          	sw	s0,24(sp)
40381bec:	00912a23          	sw	s1,20(sp)
40381bf0:	01212823          	sw	s2,16(sp)
40381bf4:	01312623          	sw	s3,12(sp)
40381bf8:	06c72783          	lw	a5,108(a4)
40381bfc:	0017e793          	ori	a5,a5,1
40381c00:	06f72623          	sw	a5,108(a4)
40381c04:	300479f3          	csrrci	s3,mstatus,8
40381c08:	3fc834b7          	lui	s1,0x3fc83
40381c0c:	e51ff0ef          	jal	ra,40381a5c <get_systimer_alarm>
40381c10:	00050413          	mv	s0,a0
40381c14:	c704a503          	lw	a0,-912(s1) # 3fc82c70 <last_count>
40381c18:	c744a783          	lw	a5,-908(s1)
40381c1c:	00058913          	mv	s2,a1
40381c20:	40a40533          	sub	a0,s0,a0
40381c24:	00a435b3          	sltu	a1,s0,a0
40381c28:	40f907b3          	sub	a5,s2,a5
40381c2c:	00004637          	lui	a2,0x4
40381c30:	e8060613          	addi	a2,a2,-384 # 3e80 <_image_irom_start+0x724>
40381c34:	00000693          	li	a3,0
40381c38:	40b785b3          	sub	a1,a5,a1
40381c3c:	ffc7f097          	auipc	ra,0xffc7f
40381c40:	c70080e7          	jalr	-912(ra) # 400008ac <__udivdi3>
40381c44:	0089f993          	andi	s3,s3,8
40381c48:	c684a823          	sw	s0,-912(s1)
40381c4c:	c724aa23          	sw	s2,-908(s1)
40381c50:	3009a073          	csrs	mstatus,s3
40381c54:	01812403          	lw	s0,24(sp)
40381c58:	01c12083          	lw	ra,28(sp)
40381c5c:	01412483          	lw	s1,20(sp)
40381c60:	01012903          	lw	s2,16(sp)
40381c64:	00c12983          	lw	s3,12(sp)
40381c68:	02010113          	addi	sp,sp,32
40381c6c:	badff06f          	j	40381818 <sys_clock_announce>

40381c70 <sys_clock_set_timeout>:
40381c70:	ff010113          	addi	sp,sp,-16
40381c74:	00112623          	sw	ra,12(sp)
40381c78:	00812423          	sw	s0,8(sp)
40381c7c:	00912223          	sw	s1,4(sp)
40381c80:	fff00793          	li	a5,-1
40381c84:	0af50063          	beq	a0,a5,40381d24 <sys_clock_set_timeout+0xb4>
40381c88:	00100793          	li	a5,1
40381c8c:	00000413          	li	s0,0
40381c90:	00a7da63          	bge	a5,a0,40381ca4 <sys_clock_set_timeout+0x34>
40381c94:	00042437          	lui	s0,0x42
40381c98:	89240413          	addi	s0,s0,-1902 # 41892 <_image_irom_size+0x3d16e>
40381c9c:	00a44463          	blt	s0,a0,40381ca4 <sys_clock_set_timeout+0x34>
40381ca0:	fff50413          	addi	s0,a0,-1
40381ca4:	300474f3          	csrrci	s1,mstatus,8
40381ca8:	db5ff0ef          	jal	ra,40381a5c <get_systimer_alarm>
40381cac:	00004737          	lui	a4,0x4
40381cb0:	e8070613          	addi	a2,a4,-384 # 3e80 <_image_irom_start+0x724>
40381cb4:	02c40433          	mul	s0,s0,a2
40381cb8:	3fc837b7          	lui	a5,0x3fc83
40381cbc:	c707a683          	lw	a3,-912(a5) # 3fc82c70 <last_count>
40381cc0:	e7f70713          	addi	a4,a4,-385
40381cc4:	c747a583          	lw	a1,-908(a5)
40381cc8:	40d70733          	sub	a4,a4,a3
40381ccc:	00a70733          	add	a4,a4,a0
40381cd0:	fff00793          	li	a5,-1
40381cd4:	00870433          	add	s0,a4,s0
40381cd8:	00e46463          	bltu	s0,a4,40381ce0 <sys_clock_set_timeout+0x70>
40381cdc:	00040793          	mv	a5,s0
40381ce0:	02c7d7b3          	divu	a5,a5,a2
40381ce4:	40a68533          	sub	a0,a3,a0
40381ce8:	02c787b3          	mul	a5,a5,a2
40381cec:	00f50733          	add	a4,a0,a5
40381cf0:	00e04463          	bgtz	a4,40381cf8 <sys_clock_set_timeout+0x88>
40381cf4:	00c787b3          	add	a5,a5,a2
40381cf8:	00d78533          	add	a0,a5,a3
40381cfc:	00f537b3          	sltu	a5,a0,a5
40381d00:	00b785b3          	add	a1,a5,a1
40381d04:	d6dff0ef          	jal	ra,40381a70 <set_systimer_alarm>
40381d08:	0084f493          	andi	s1,s1,8
40381d0c:	3004a073          	csrs	mstatus,s1
40381d10:	00c12083          	lw	ra,12(sp)
40381d14:	00812403          	lw	s0,8(sp)
40381d18:	00412483          	lw	s1,4(sp)
40381d1c:	01010113          	addi	sp,sp,16
40381d20:	00008067          	ret
40381d24:	00042537          	lui	a0,0x42
40381d28:	89250513          	addi	a0,a0,-1902 # 41892 <_image_irom_size+0x3d16e>
40381d2c:	f75ff06f          	j	40381ca0 <sys_clock_set_timeout+0x30>

40381d30 <sys_clock_elapsed>:
40381d30:	ff010113          	addi	sp,sp,-16
40381d34:	00112623          	sw	ra,12(sp)
40381d38:	00812423          	sw	s0,8(sp)
40381d3c:	30047473          	csrrci	s0,mstatus,8
40381d40:	d1dff0ef          	jal	ra,40381a5c <get_systimer_alarm>
40381d44:	3fc837b7          	lui	a5,0x3fc83
40381d48:	c707a783          	lw	a5,-912(a5) # 3fc82c70 <last_count>
40381d4c:	00847413          	andi	s0,s0,8
40381d50:	40f50533          	sub	a0,a0,a5
40381d54:	000047b7          	lui	a5,0x4
40381d58:	e8078793          	addi	a5,a5,-384 # 3e80 <_image_irom_start+0x724>
40381d5c:	02f55533          	divu	a0,a0,a5
40381d60:	30042073          	csrs	mstatus,s0
40381d64:	00c12083          	lw	ra,12(sp)
40381d68:	00812403          	lw	s0,8(sp)
40381d6c:	01010113          	addi	sp,sp,16
40381d70:	00008067          	ret

40381d74 <encode_uint>:
40381d74:	fd010113          	addi	sp,sp,-48
40381d78:	02812423          	sw	s0,40(sp)
40381d7c:	02912223          	sw	s1,36(sp)
40381d80:	03212023          	sw	s2,32(sp)
40381d84:	01312e23          	sw	s3,28(sp)
40381d88:	01712623          	sw	s7,12(sp)
40381d8c:	01812423          	sw	s8,8(sp)
40381d90:	01912223          	sw	s9,4(sp)
40381d94:	02112623          	sw	ra,44(sp)
40381d98:	01412c23          	sw	s4,24(sp)
40381d9c:	01512a23          	sw	s5,20(sp)
40381da0:	01612823          	sw	s6,16(sp)
40381da4:	00364783          	lbu	a5,3(a2)
40381da8:	00070b93          	mv	s7,a4
40381dac:	06f00713          	li	a4,111
40381db0:	00050413          	mv	s0,a0
40381db4:	00058493          	mv	s1,a1
40381db8:	00060c93          	mv	s9,a2
40381dbc:	00068913          	mv	s2,a3
40381dc0:	fbf78993          	addi	s3,a5,-65
40381dc4:	00800c13          	li	s8,8
40381dc8:	00e78c63          	beq	a5,a4,40381de0 <encode_uint+0x6c>
40381dcc:	0cf76663          	bltu	a4,a5,40381e98 <encode_uint+0x124>
40381dd0:	05800713          	li	a4,88
40381dd4:	01000c13          	li	s8,16
40381dd8:	00e78463          	beq	a5,a4,40381de0 <encode_uint+0x6c>
40381ddc:	00a00c13          	li	s8,10
40381de0:	00000a93          	li	s5,0
40381de4:	00900a13          	li	s4,9
40381de8:	01900b13          	li	s6,25
40381dec:	000c0613          	mv	a2,s8
40381df0:	00000693          	li	a3,0
40381df4:	00040513          	mv	a0,s0
40381df8:	00048593          	mv	a1,s1
40381dfc:	ffc7f097          	auipc	ra,0xffc7f
40381e00:	ac0080e7          	jalr	-1344(ra) # 400008bc <__umoddi3>
40381e04:	0ff57793          	zext.b	a5,a0
40381e08:	0aaa6463          	bltu	s4,a0,40381eb0 <encode_uint+0x13c>
40381e0c:	03078793          	addi	a5,a5,48
40381e10:	0ff7f793          	zext.b	a5,a5
40381e14:	000c0613          	mv	a2,s8
40381e18:	00000693          	li	a3,0
40381e1c:	00040513          	mv	a0,s0
40381e20:	00048593          	mv	a1,s1
40381e24:	fefb8fa3          	sb	a5,-1(s7)
40381e28:	fffb8b93          	addi	s7,s7,-1
40381e2c:	ffc7f097          	auipc	ra,0xffc7f
40381e30:	a80080e7          	jalr	-1408(ra) # 400008ac <__udivdi3>
40381e34:	009a9463          	bne	s5,s1,40381e3c <encode_uint+0xc8>
40381e38:	01846463          	bltu	s0,s8,40381e40 <encode_uint+0xcc>
40381e3c:	07796463          	bltu	s2,s7,40381ea4 <encode_uint+0x130>
40381e40:	000cd783          	lhu	a5,0(s9)
40381e44:	0207f793          	andi	a5,a5,32
40381e48:	00078c63          	beqz	a5,40381e60 <encode_uint+0xec>
40381e4c:	00800793          	li	a5,8
40381e50:	06fc1a63          	bne	s8,a5,40381ec4 <encode_uint+0x150>
40381e54:	002cc783          	lbu	a5,2(s9)
40381e58:	0087e793          	ori	a5,a5,8
40381e5c:	00fc8123          	sb	a5,2(s9)
40381e60:	02c12083          	lw	ra,44(sp)
40381e64:	02812403          	lw	s0,40(sp)
40381e68:	02412483          	lw	s1,36(sp)
40381e6c:	02012903          	lw	s2,32(sp)
40381e70:	01c12983          	lw	s3,28(sp)
40381e74:	01812a03          	lw	s4,24(sp)
40381e78:	01412a83          	lw	s5,20(sp)
40381e7c:	01012b03          	lw	s6,16(sp)
40381e80:	00812c03          	lw	s8,8(sp)
40381e84:	00412c83          	lw	s9,4(sp)
40381e88:	000b8513          	mv	a0,s7
40381e8c:	00c12b83          	lw	s7,12(sp)
40381e90:	03010113          	addi	sp,sp,48
40381e94:	00008067          	ret
40381e98:	0f77f793          	andi	a5,a5,247
40381e9c:	07000713          	li	a4,112
40381ea0:	f35ff06f          	j	40381dd4 <encode_uint+0x60>
40381ea4:	00050413          	mv	s0,a0
40381ea8:	00058493          	mv	s1,a1
40381eac:	f41ff06f          	j	40381dec <encode_uint+0x78>
40381eb0:	013b6663          	bltu	s6,s3,40381ebc <encode_uint+0x148>
40381eb4:	03778793          	addi	a5,a5,55
40381eb8:	f59ff06f          	j	40381e10 <encode_uint+0x9c>
40381ebc:	05778793          	addi	a5,a5,87
40381ec0:	f51ff06f          	j	40381e10 <encode_uint+0x9c>
40381ec4:	01000793          	li	a5,16
40381ec8:	f8fc1ce3          	bne	s8,a5,40381e60 <encode_uint+0xec>
40381ecc:	002cc783          	lbu	a5,2(s9)
40381ed0:	0107e793          	ori	a5,a5,16
40381ed4:	f89ff06f          	j	40381e5c <encode_uint+0xe8>

40381ed8 <outs>:
40381ed8:	fe010113          	addi	sp,sp,-32
40381edc:	00812c23          	sw	s0,24(sp)
40381ee0:	00912a23          	sw	s1,20(sp)
40381ee4:	01212823          	sw	s2,16(sp)
40381ee8:	01312623          	sw	s3,12(sp)
40381eec:	01412423          	sw	s4,8(sp)
40381ef0:	00112e23          	sw	ra,28(sp)
40381ef4:	00050993          	mv	s3,a0
40381ef8:	00058a13          	mv	s4,a1
40381efc:	00060493          	mv	s1,a2
40381f00:	00068913          	mv	s2,a3
40381f04:	00060413          	mv	s0,a2
40381f08:	01246c63          	bltu	s0,s2,40381f20 <outs+0x48>
40381f0c:	00090663          	beqz	s2,40381f18 <outs+0x40>
40381f10:	40940533          	sub	a0,s0,s1
40381f14:	0200006f          	j	40381f34 <outs+0x5c>
40381f18:	00044783          	lbu	a5,0(s0)
40381f1c:	fe078ae3          	beqz	a5,40381f10 <outs+0x38>
40381f20:	00044503          	lbu	a0,0(s0)
40381f24:	000a0593          	mv	a1,s4
40381f28:	00140413          	addi	s0,s0,1
40381f2c:	000980e7          	jalr	s3
40381f30:	fc055ce3          	bgez	a0,40381f08 <outs+0x30>
40381f34:	01c12083          	lw	ra,28(sp)
40381f38:	01812403          	lw	s0,24(sp)
40381f3c:	01412483          	lw	s1,20(sp)
40381f40:	01012903          	lw	s2,16(sp)
40381f44:	00c12983          	lw	s3,12(sp)
40381f48:	00812a03          	lw	s4,8(sp)
40381f4c:	02010113          	addi	sp,sp,32
40381f50:	00008067          	ret

40381f54 <z_cbvprintf_impl>:
40381f54:	f7010113          	addi	sp,sp,-144
40381f58:	08812423          	sw	s0,136(sp)
40381f5c:	08912223          	sw	s1,132(sp)
40381f60:	07412c23          	sw	s4,120(sp)
40381f64:	07912223          	sw	s9,100(sp)
40381f68:	07a12023          	sw	s10,96(sp)
40381f6c:	08112623          	sw	ra,140(sp)
40381f70:	09212023          	sw	s2,128(sp)
40381f74:	07312e23          	sw	s3,124(sp)
40381f78:	07512a23          	sw	s5,116(sp)
40381f7c:	07612823          	sw	s6,112(sp)
40381f80:	07712623          	sw	s7,108(sp)
40381f84:	07812423          	sw	s8,104(sp)
40381f88:	05b12e23          	sw	s11,92(sp)
40381f8c:	00050493          	mv	s1,a0
40381f90:	00b12423          	sw	a1,8(sp)
40381f94:	00060413          	mv	s0,a2
40381f98:	00068c93          	mv	s9,a3
40381f9c:	00000d13          	li	s10,0
40381fa0:	02500a13          	li	s4,37
40381fa4:	00044503          	lbu	a0,0(s0)
40381fa8:	00051663          	bnez	a0,40381fb4 <z_cbvprintf_impl+0x60>
40381fac:	000d0513          	mv	a0,s10
40381fb0:	2890006f          	j	40382a38 <z_cbvprintf_impl+0xae4>
40381fb4:	00140993          	addi	s3,s0,1
40381fb8:	01450c63          	beq	a0,s4,40381fd0 <z_cbvprintf_impl+0x7c>
40381fbc:	00812583          	lw	a1,8(sp)
40381fc0:	000480e7          	jalr	s1
40381fc4:	26054ae3          	bltz	a0,40382a38 <z_cbvprintf_impl+0xae4>
40381fc8:	001d0d13          	addi	s10,s10,1
40381fcc:	6cc0006f          	j	40382698 <z_cbvprintf_impl+0x744>
40381fd0:	02000613          	li	a2,32
40381fd4:	00000593          	li	a1,0
40381fd8:	03010513          	addi	a0,sp,48
40381fdc:	41d000ef          	jal	ra,40382bf8 <memset>
40381fe0:	00144783          	lbu	a5,1(s0)
40381fe4:	05479c63          	bne	a5,s4,4038203c <z_cbvprintf_impl+0xe8>
40381fe8:	00240993          	addi	s3,s0,2
40381fec:	054101a3          	sb	s4,67(sp)
40381ff0:	04015783          	lhu	a5,64(sp)
40381ff4:	1007f713          	andi	a4,a5,256
40381ff8:	50070c63          	beqz	a4,40382510 <z_cbvprintf_impl+0x5bc>
40381ffc:	000caa83          	lw	s5,0(s9)
40382000:	004c8713          	addi	a4,s9,4
40382004:	000ad863          	bgez	s5,40382014 <z_cbvprintf_impl+0xc0>
40382008:	0047e793          	ori	a5,a5,4
4038200c:	04f11023          	sh	a5,64(sp)
40382010:	41500ab3          	neg	s5,s5
40382014:	04015783          	lhu	a5,64(sp)
40382018:	4007f693          	andi	a3,a5,1024
4038201c:	50068a63          	beqz	a3,40382530 <z_cbvprintf_impl+0x5dc>
40382020:	00072b83          	lw	s7,0(a4)
40382024:	00470c93          	addi	s9,a4,4
40382028:	500bdc63          	bgez	s7,40382540 <z_cbvprintf_impl+0x5ec>
4038202c:	dff7f793          	andi	a5,a5,-513
40382030:	04f11023          	sh	a5,64(sp)
40382034:	fff00b93          	li	s7,-1
40382038:	5080006f          	j	40382540 <z_cbvprintf_impl+0x5ec>
4038203c:	00000713          	li	a4,0
40382040:	00000513          	li	a0,0
40382044:	00000693          	li	a3,0
40382048:	00000593          	li	a1,0
4038204c:	00000613          	li	a2,0
40382050:	02b00813          	li	a6,43
40382054:	02d00893          	li	a7,45
40382058:	03000313          	li	t1,48
4038205c:	02000e13          	li	t3,32
40382060:	02300e93          	li	t4,35
40382064:	0009c783          	lbu	a5,0(s3)
40382068:	13078a63          	beq	a5,a6,4038219c <z_cbvprintf_impl+0x248>
4038206c:	12f86063          	bltu	a6,a5,4038218c <z_cbvprintf_impl+0x238>
40382070:	13c78c63          	beq	a5,t3,403821a8 <z_cbvprintf_impl+0x254>
40382074:	13d78e63          	beq	a5,t4,403821b0 <z_cbvprintf_impl+0x25c>
40382078:	00070863          	beqz	a4,40382088 <z_cbvprintf_impl+0x134>
4038207c:	04015703          	lhu	a4,64(sp)
40382080:	04076713          	ori	a4,a4,64
40382084:	04e11023          	sh	a4,64(sp)
40382088:	00050863          	beqz	a0,40382098 <z_cbvprintf_impl+0x144>
4038208c:	04015703          	lhu	a4,64(sp)
40382090:	02076713          	ori	a4,a4,32
40382094:	04e11023          	sh	a4,64(sp)
40382098:	00068863          	beqz	a3,403820a8 <z_cbvprintf_impl+0x154>
4038209c:	04015703          	lhu	a4,64(sp)
403820a0:	01076713          	ori	a4,a4,16
403820a4:	04e11023          	sh	a4,64(sp)
403820a8:	00058863          	beqz	a1,403820b8 <z_cbvprintf_impl+0x164>
403820ac:	04015703          	lhu	a4,64(sp)
403820b0:	00876713          	ori	a4,a4,8
403820b4:	04e11023          	sh	a4,64(sp)
403820b8:	00060863          	beqz	a2,403820c8 <z_cbvprintf_impl+0x174>
403820bc:	04015703          	lhu	a4,64(sp)
403820c0:	00476713          	ori	a4,a4,4
403820c4:	04e11023          	sh	a4,64(sp)
403820c8:	04012703          	lw	a4,64(sp)
403820cc:	04400693          	li	a3,68
403820d0:	04477713          	andi	a4,a4,68
403820d4:	00d71863          	bne	a4,a3,403820e4 <z_cbvprintf_impl+0x190>
403820d8:	04015703          	lhu	a4,64(sp)
403820dc:	fbf77713          	andi	a4,a4,-65
403820e0:	04e11023          	sh	a4,64(sp)
403820e4:	04015703          	lhu	a4,64(sp)
403820e8:	08076713          	ori	a4,a4,128
403820ec:	04e11023          	sh	a4,64(sp)
403820f0:	02a00713          	li	a4,42
403820f4:	10e79663          	bne	a5,a4,40382200 <z_cbvprintf_impl+0x2ac>
403820f8:	04015703          	lhu	a4,64(sp)
403820fc:	00198793          	addi	a5,s3,1
40382100:	10076713          	ori	a4,a4,256
40382104:	04e11023          	sh	a4,64(sp)
40382108:	0007c603          	lbu	a2,0(a5)
4038210c:	04015703          	lhu	a4,64(sp)
40382110:	fd260693          	addi	a3,a2,-46
40382114:	0016b693          	seqz	a3,a3
40382118:	00969693          	slli	a3,a3,0x9
4038211c:	dff77713          	andi	a4,a4,-513
40382120:	00d76733          	or	a4,a4,a3
40382124:	04e11023          	sh	a4,64(sp)
40382128:	02e00713          	li	a4,46
4038212c:	0ee61c63          	bne	a2,a4,40382224 <z_cbvprintf_impl+0x2d0>
40382130:	0017c683          	lbu	a3,1(a5)
40382134:	02a00713          	li	a4,42
40382138:	0ce68e63          	beq	a3,a4,40382214 <z_cbvprintf_impl+0x2c0>
4038213c:	00178793          	addi	a5,a5,1
40382140:	00000713          	li	a4,0
40382144:	00900613          	li	a2,9
40382148:	00a00813          	li	a6,10
4038214c:	0007c683          	lbu	a3,0(a5)
40382150:	00178513          	addi	a0,a5,1
40382154:	fd068593          	addi	a1,a3,-48 # ffffd0 <CONFIG_SYS_CLOCK_HW_CYCLES_PER_SEC+0xbdbd0>
40382158:	14b67863          	bgeu	a2,a1,403822a8 <z_cbvprintf_impl+0x354>
4038215c:	04012683          	lw	a3,64(sp)
40382160:	04e12423          	sw	a4,72(sp)
40382164:	01f75713          	srli	a4,a4,0x1f
40382168:	0016d693          	srli	a3,a3,0x1
4038216c:	0016f693          	andi	a3,a3,1
40382170:	00d76733          	or	a4,a4,a3
40382174:	04015683          	lhu	a3,64(sp)
40382178:	00171713          	slli	a4,a4,0x1
4038217c:	ffd6f693          	andi	a3,a3,-3
40382180:	00e6e733          	or	a4,a3,a4
40382184:	04e11023          	sh	a4,64(sp)
40382188:	09c0006f          	j	40382224 <z_cbvprintf_impl+0x2d0>
4038218c:	03178663          	beq	a5,a7,403821b8 <z_cbvprintf_impl+0x264>
40382190:	ee6794e3          	bne	a5,t1,40382078 <z_cbvprintf_impl+0x124>
40382194:	00100713          	li	a4,1
40382198:	0080006f          	j	403821a0 <z_cbvprintf_impl+0x24c>
4038219c:	00100593          	li	a1,1
403821a0:	00198993          	addi	s3,s3,1
403821a4:	ec1ff06f          	j	40382064 <z_cbvprintf_impl+0x110>
403821a8:	00100693          	li	a3,1
403821ac:	ff5ff06f          	j	403821a0 <z_cbvprintf_impl+0x24c>
403821b0:	00100513          	li	a0,1
403821b4:	fedff06f          	j	403821a0 <z_cbvprintf_impl+0x24c>
403821b8:	00100613          	li	a2,1
403821bc:	fe5ff06f          	j	403821a0 <z_cbvprintf_impl+0x24c>
403821c0:	03070733          	mul	a4,a4,a6
403821c4:	00050793          	mv	a5,a0
403821c8:	fd070713          	addi	a4,a4,-48
403821cc:	00e68733          	add	a4,a3,a4
403821d0:	0007c683          	lbu	a3,0(a5)
403821d4:	00178513          	addi	a0,a5,1
403821d8:	fd068593          	addi	a1,a3,-48
403821dc:	feb672e3          	bgeu	a2,a1,403821c0 <z_cbvprintf_impl+0x26c>
403821e0:	f2f984e3          	beq	s3,a5,40382108 <z_cbvprintf_impl+0x1b4>
403821e4:	04015683          	lhu	a3,64(sp)
403821e8:	04e12223          	sw	a4,68(sp)
403821ec:	01f75713          	srli	a4,a4,0x1f
403821f0:	00171713          	slli	a4,a4,0x1
403821f4:	ffd6f693          	andi	a3,a3,-3
403821f8:	00e6e733          	or	a4,a3,a4
403821fc:	f09ff06f          	j	40382104 <z_cbvprintf_impl+0x1b0>
40382200:	00098793          	mv	a5,s3
40382204:	00000713          	li	a4,0
40382208:	00900613          	li	a2,9
4038220c:	00a00813          	li	a6,10
40382210:	fc1ff06f          	j	403821d0 <z_cbvprintf_impl+0x27c>
40382214:	04015703          	lhu	a4,64(sp)
40382218:	00278793          	addi	a5,a5,2
4038221c:	40076713          	ori	a4,a4,1024
40382220:	04e11023          	sh	a4,64(sp)
40382224:	0007c683          	lbu	a3,0(a5)
40382228:	06c00713          	li	a4,108
4038222c:	0ee68e63          	beq	a3,a4,40382328 <z_cbvprintf_impl+0x3d4>
40382230:	08d76663          	bltu	a4,a3,403822bc <z_cbvprintf_impl+0x368>
40382234:	06800713          	li	a4,104
40382238:	0ae68663          	beq	a3,a4,403822e4 <z_cbvprintf_impl+0x390>
4038223c:	06a00713          	li	a4,106
40382240:	10e68a63          	beq	a3,a4,40382354 <z_cbvprintf_impl+0x400>
40382244:	04c00713          	li	a4,76
40382248:	12e68e63          	beq	a3,a4,40382384 <z_cbvprintf_impl+0x430>
4038224c:	00178993          	addi	s3,a5,1
40382250:	0007c783          	lbu	a5,0(a5)
40382254:	07800713          	li	a4,120
40382258:	04f101a3          	sb	a5,67(sp)
4038225c:	2af76263          	bltu	a4,a5,40382500 <z_cbvprintf_impl+0x5ac>
40382260:	06d00713          	li	a4,109
40382264:	12f76e63          	bltu	a4,a5,403823a0 <z_cbvprintf_impl+0x44c>
40382268:	06900713          	li	a4,105
4038226c:	28f76a63          	bltu	a4,a5,40382500 <z_cbvprintf_impl+0x5ac>
40382270:	05700713          	li	a4,87
40382274:	18f76063          	bltu	a4,a5,403823f4 <z_cbvprintf_impl+0x4a0>
40382278:	04100713          	li	a4,65
4038227c:	00e78a63          	beq	a5,a4,40382290 <z_cbvprintf_impl+0x33c>
40382280:	fbb78793          	addi	a5,a5,-69
40382284:	0ff7f793          	zext.b	a5,a5
40382288:	00200713          	li	a4,2
4038228c:	26f76a63          	bltu	a4,a5,40382500 <z_cbvprintf_impl+0x5ac>
40382290:	04214783          	lbu	a5,66(sp)
40382294:	ff87f793          	andi	a5,a5,-8
40382298:	0047e793          	ori	a5,a5,4
4038229c:	04f10123          	sb	a5,66(sp)
403822a0:	00100793          	li	a5,1
403822a4:	1b40006f          	j	40382458 <z_cbvprintf_impl+0x504>
403822a8:	03070733          	mul	a4,a4,a6
403822ac:	00050793          	mv	a5,a0
403822b0:	fd070713          	addi	a4,a4,-48
403822b4:	00d70733          	add	a4,a4,a3
403822b8:	e95ff06f          	j	4038214c <z_cbvprintf_impl+0x1f8>
403822bc:	07400713          	li	a4,116
403822c0:	0ae68663          	beq	a3,a4,4038236c <z_cbvprintf_impl+0x418>
403822c4:	07a00713          	li	a4,122
403822c8:	f8e692e3          	bne	a3,a4,4038224c <z_cbvprintf_impl+0x2f8>
403822cc:	04015703          	lhu	a4,64(sp)
403822d0:	ffff86b7          	lui	a3,0xffff8
403822d4:	7ff68693          	addi	a3,a3,2047 # ffff87ff <CONFIG_SYSTEM_WORKQUEUE_PRIORITY+0xffff8800>
403822d8:	00d77733          	and	a4,a4,a3
403822dc:	000036b7          	lui	a3,0x3
403822e0:	0380006f          	j	40382318 <z_cbvprintf_impl+0x3c4>
403822e4:	04015703          	lhu	a4,64(sp)
403822e8:	0017c583          	lbu	a1,1(a5)
403822ec:	ffff8637          	lui	a2,0xffff8
403822f0:	7ff60613          	addi	a2,a2,2047 # ffff87ff <CONFIG_SYSTEM_WORKQUEUE_PRIORITY+0xffff8800>
403822f4:	00c77733          	and	a4,a4,a2
403822f8:	00d59e63          	bne	a1,a3,40382314 <z_cbvprintf_impl+0x3c0>
403822fc:	000016b7          	lui	a3,0x1
40382300:	80068693          	addi	a3,a3,-2048 # 800 <CONFIG_ISR_STACK_SIZE>
40382304:	00d76733          	or	a4,a4,a3
40382308:	04e11023          	sh	a4,64(sp)
4038230c:	00278793          	addi	a5,a5,2
40382310:	f3dff06f          	j	4038224c <z_cbvprintf_impl+0x2f8>
40382314:	000016b7          	lui	a3,0x1
40382318:	00d76733          	or	a4,a4,a3
4038231c:	04e11023          	sh	a4,64(sp)
40382320:	00178793          	addi	a5,a5,1
40382324:	f29ff06f          	j	4038224c <z_cbvprintf_impl+0x2f8>
40382328:	04015703          	lhu	a4,64(sp)
4038232c:	0017c583          	lbu	a1,1(a5)
40382330:	ffff8637          	lui	a2,0xffff8
40382334:	7ff60613          	addi	a2,a2,2047 # ffff87ff <CONFIG_SYSTEM_WORKQUEUE_PRIORITY+0xffff8800>
40382338:	00c77733          	and	a4,a4,a2
4038233c:	00d59663          	bne	a1,a3,40382348 <z_cbvprintf_impl+0x3f4>
40382340:	000026b7          	lui	a3,0x2
40382344:	fc1ff06f          	j	40382304 <z_cbvprintf_impl+0x3b0>
40382348:	000026b7          	lui	a3,0x2
4038234c:	80068693          	addi	a3,a3,-2048 # 1800 <CONFIG_HEAP_MEM_POOL_SIZE+0x800>
40382350:	fc9ff06f          	j	40382318 <z_cbvprintf_impl+0x3c4>
40382354:	04015703          	lhu	a4,64(sp)
40382358:	ffff86b7          	lui	a3,0xffff8
4038235c:	7ff68693          	addi	a3,a3,2047 # ffff87ff <CONFIG_SYSTEM_WORKQUEUE_PRIORITY+0xffff8800>
40382360:	00d77733          	and	a4,a4,a3
40382364:	000036b7          	lui	a3,0x3
40382368:	fe5ff06f          	j	4038234c <z_cbvprintf_impl+0x3f8>
4038236c:	04015703          	lhu	a4,64(sp)
40382370:	ffff86b7          	lui	a3,0xffff8
40382374:	7ff68693          	addi	a3,a3,2047 # ffff87ff <CONFIG_SYSTEM_WORKQUEUE_PRIORITY+0xffff8800>
40382378:	00d77733          	and	a4,a4,a3
4038237c:	000046b7          	lui	a3,0x4
40382380:	fcdff06f          	j	4038234c <z_cbvprintf_impl+0x3f8>
40382384:	04015703          	lhu	a4,64(sp)
40382388:	ffff86b7          	lui	a3,0xffff8
4038238c:	7fd68693          	addi	a3,a3,2045 # ffff87fd <CONFIG_SYSTEM_WORKQUEUE_PRIORITY+0xffff87fe>
40382390:	00d77733          	and	a4,a4,a3
40382394:	000046b7          	lui	a3,0x4
40382398:	00268693          	addi	a3,a3,2 # 4002 <CONFIG_COVERAGE_GCOV_HEAP_SIZE+0x2>
4038239c:	f7dff06f          	j	40382318 <z_cbvprintf_impl+0x3c4>
403823a0:	f9278713          	addi	a4,a5,-110
403823a4:	00100793          	li	a5,1
403823a8:	00e797b3          	sll	a5,a5,a4
403823ac:	4827f713          	andi	a4,a5,1154
403823b0:	0c071863          	bnez	a4,40382480 <z_cbvprintf_impl+0x52c>
403823b4:	0247f713          	andi	a4,a5,36
403823b8:	12071a63          	bnez	a4,403824ec <z_cbvprintf_impl+0x598>
403823bc:	0017f793          	andi	a5,a5,1
403823c0:	14078063          	beqz	a5,40382500 <z_cbvprintf_impl+0x5ac>
403823c4:	04214783          	lbu	a5,66(sp)
403823c8:	00008737          	lui	a4,0x8
403823cc:	80070713          	addi	a4,a4,-2048 # 7800 <_image_irom_size+0x30dc>
403823d0:	ff87f793          	andi	a5,a5,-8
403823d4:	0037e793          	ori	a5,a5,3
403823d8:	04f10123          	sb	a5,66(sp)
403823dc:	04015783          	lhu	a5,64(sp)
403823e0:	00e7f7b3          	and	a5,a5,a4
403823e4:	ffffc737          	lui	a4,0xffffc
403823e8:	00e787b3          	add	a5,a5,a4
403823ec:	0017b793          	seqz	a5,a5
403823f0:	0680006f          	j	40382458 <z_cbvprintf_impl+0x504>
403823f4:	fa878693          	addi	a3,a5,-88
403823f8:	00100713          	li	a4,1
403823fc:	00d71733          	sll	a4,a4,a3
40382400:	0000e6b7          	lui	a3,0xe
40382404:	20068693          	addi	a3,a3,512 # e200 <_image_irom_size+0x9adc>
40382408:	00d776b3          	and	a3,a4,a3
4038240c:	e80692e3          	bnez	a3,40382290 <z_cbvprintf_impl+0x33c>
40382410:	000016b7          	lui	a3,0x1
40382414:	80168693          	addi	a3,a3,-2047 # 801 <CONFIG_ISR_STACK_SIZE+0x1>
40382418:	00d776b3          	and	a3,a4,a3
4038241c:	08069063          	bnez	a3,4038249c <z_cbvprintf_impl+0x548>
40382420:	000217b7          	lui	a5,0x21
40382424:	00f77733          	and	a4,a4,a5
40382428:	0c070c63          	beqz	a4,40382500 <z_cbvprintf_impl+0x5ac>
4038242c:	04214783          	lbu	a5,66(sp)
40382430:	ff87f793          	andi	a5,a5,-8
40382434:	0017e793          	ori	a5,a5,1
40382438:	04015703          	lhu	a4,64(sp)
4038243c:	04f10123          	sb	a5,66(sp)
40382440:	000087b7          	lui	a5,0x8
40382444:	80078793          	addi	a5,a5,-2048 # 7800 <_image_irom_size+0x30dc>
40382448:	00f777b3          	and	a5,a4,a5
4038244c:	000046b7          	lui	a3,0x4
40382450:	04d78063          	beq	a5,a3,40382490 <z_cbvprintf_impl+0x53c>
40382454:	00000793          	li	a5,0
40382458:	04012703          	lw	a4,64(sp)
4038245c:	00175713          	srli	a4,a4,0x1
40382460:	00177713          	andi	a4,a4,1
40382464:	00e7e7b3          	or	a5,a5,a4
40382468:	04015703          	lhu	a4,64(sp)
4038246c:	00179793          	slli	a5,a5,0x1
40382470:	ffd77713          	andi	a4,a4,-3
40382474:	00f767b3          	or	a5,a4,a5
40382478:	04f11023          	sh	a5,64(sp)
4038247c:	b75ff06f          	j	40381ff0 <z_cbvprintf_impl+0x9c>
40382480:	04214783          	lbu	a5,66(sp)
40382484:	ff87f793          	andi	a5,a5,-8
40382488:	0027e793          	ori	a5,a5,2
4038248c:	fadff06f          	j	40382438 <z_cbvprintf_impl+0x4e4>
40382490:	00176713          	ori	a4,a4,1
40382494:	04e11023          	sh	a4,64(sp)
40382498:	fbdff06f          	j	40382454 <z_cbvprintf_impl+0x500>
4038249c:	04214703          	lbu	a4,66(sp)
403824a0:	04015683          	lhu	a3,64(sp)
403824a4:	00004637          	lui	a2,0x4
403824a8:	ff877713          	andi	a4,a4,-8
403824ac:	00276713          	ori	a4,a4,2
403824b0:	04e10123          	sb	a4,66(sp)
403824b4:	00008737          	lui	a4,0x8
403824b8:	80070713          	addi	a4,a4,-2048 # 7800 <_image_irom_size+0x30dc>
403824bc:	00e6f733          	and	a4,a3,a4
403824c0:	00c71663          	bne	a4,a2,403824cc <z_cbvprintf_impl+0x578>
403824c4:	0016e693          	ori	a3,a3,1
403824c8:	04d11023          	sh	a3,64(sp)
403824cc:	06300713          	li	a4,99
403824d0:	f8e792e3          	bne	a5,a4,40382454 <z_cbvprintf_impl+0x500>
403824d4:	04015783          	lhu	a5,64(sp)
403824d8:	00008737          	lui	a4,0x8
403824dc:	80070713          	addi	a4,a4,-2048 # 7800 <_image_irom_size+0x30dc>
403824e0:	00e7f7b3          	and	a5,a5,a4
403824e4:	00f037b3          	snez	a5,a5
403824e8:	f71ff06f          	j	40382458 <z_cbvprintf_impl+0x504>
403824ec:	04214783          	lbu	a5,66(sp)
403824f0:	ff87f793          	andi	a5,a5,-8
403824f4:	0037e793          	ori	a5,a5,3
403824f8:	04f10123          	sb	a5,66(sp)
403824fc:	fd9ff06f          	j	403824d4 <z_cbvprintf_impl+0x580>
40382500:	04015783          	lhu	a5,64(sp)
40382504:	0017e793          	ori	a5,a5,1
40382508:	04f11023          	sh	a5,64(sp)
4038250c:	f49ff06f          	j	40382454 <z_cbvprintf_impl+0x500>
40382510:	0807f793          	andi	a5,a5,128
40382514:	00078863          	beqz	a5,40382524 <z_cbvprintf_impl+0x5d0>
40382518:	04412a83          	lw	s5,68(sp)
4038251c:	000c8713          	mv	a4,s9
40382520:	af5ff06f          	j	40382014 <z_cbvprintf_impl+0xc0>
40382524:	000c8713          	mv	a4,s9
40382528:	fff00a93          	li	s5,-1
4038252c:	ae9ff06f          	j	40382014 <z_cbvprintf_impl+0xc0>
40382530:	2007f793          	andi	a5,a5,512
40382534:	06078663          	beqz	a5,403825a0 <z_cbvprintf_impl+0x64c>
40382538:	04812b83          	lw	s7,72(sp)
4038253c:	00070c93          	mv	s9,a4
40382540:	04012603          	lw	a2,64(sp)
40382544:	04012223          	sw	zero,68(sp)
40382548:	04012423          	sw	zero,72(sp)
4038254c:	01065513          	srli	a0,a2,0x10
40382550:	00b65693          	srli	a3,a2,0xb
40382554:	00757513          	andi	a0,a0,7
40382558:	00100593          	li	a1,1
4038255c:	00f6f693          	andi	a3,a3,15
40382560:	08b51a63          	bne	a0,a1,403825f4 <z_cbvprintf_impl+0x6a0>
40382564:	00500793          	li	a5,5
40382568:	18f68463          	beq	a3,a5,403826f0 <z_cbvprintf_impl+0x79c>
4038256c:	02d7ee63          	bltu	a5,a3,403825a8 <z_cbvprintf_impl+0x654>
40382570:	00300793          	li	a5,3
40382574:	04f68663          	beq	a3,a5,403825c0 <z_cbvprintf_impl+0x66c>
40382578:	00400793          	li	a5,4
4038257c:	16f68a63          	beq	a3,a5,403826f0 <z_cbvprintf_impl+0x79c>
40382580:	000ca783          	lw	a5,0(s9)
40382584:	004c8713          	addi	a4,s9,4
40382588:	41f7d593          	srai	a1,a5,0x1f
4038258c:	02f12823          	sw	a5,48(sp)
40382590:	02b12a23          	sw	a1,52(sp)
40382594:	04a69263          	bne	a3,a0,403825d8 <z_cbvprintf_impl+0x684>
40382598:	03010783          	lb	a5,48(sp)
4038259c:	0140006f          	j	403825b0 <z_cbvprintf_impl+0x65c>
403825a0:	00070c93          	mv	s9,a4
403825a4:	a91ff06f          	j	40382034 <z_cbvprintf_impl+0xe0>
403825a8:	000ca783          	lw	a5,0(s9)
403825ac:	004c8713          	addi	a4,s9,4
403825b0:	02f12823          	sw	a5,48(sp)
403825b4:	41f7d793          	srai	a5,a5,0x1f
403825b8:	02f12a23          	sw	a5,52(sp)
403825bc:	0240006f          	j	403825e0 <z_cbvprintf_impl+0x68c>
403825c0:	000ca783          	lw	a5,0(s9)
403825c4:	02f12823          	sw	a5,48(sp)
403825c8:	41f7d793          	srai	a5,a5,0x1f
403825cc:	02f12a23          	sw	a5,52(sp)
403825d0:	004c8c93          	addi	s9,s9,4
403825d4:	0a00006f          	j	40382674 <z_cbvprintf_impl+0x720>
403825d8:	00200593          	li	a1,2
403825dc:	00b68663          	beq	a3,a1,403825e8 <z_cbvprintf_impl+0x694>
403825e0:	00070c93          	mv	s9,a4
403825e4:	0900006f          	j	40382674 <z_cbvprintf_impl+0x720>
403825e8:	01079793          	slli	a5,a5,0x10
403825ec:	4107d793          	srai	a5,a5,0x10
403825f0:	fc1ff06f          	j	403825b0 <z_cbvprintf_impl+0x65c>
403825f4:	00200793          	li	a5,2
403825f8:	0cf51063          	bne	a0,a5,403826b8 <z_cbvprintf_impl+0x764>
403825fc:	00500793          	li	a5,5
40382600:	0ef68863          	beq	a3,a5,403826f0 <z_cbvprintf_impl+0x79c>
40382604:	02d7ee63          	bltu	a5,a3,40382640 <z_cbvprintf_impl+0x6ec>
40382608:	00300793          	li	a5,3
4038260c:	04f68463          	beq	a3,a5,40382654 <z_cbvprintf_impl+0x700>
40382610:	00400793          	li	a5,4
40382614:	0cf68e63          	beq	a3,a5,403826f0 <z_cbvprintf_impl+0x79c>
40382618:	000ca783          	lw	a5,0(s9)
4038261c:	004c8713          	addi	a4,s9,4
40382620:	08b68663          	beq	a3,a1,403826ac <z_cbvprintf_impl+0x758>
40382624:	02f12823          	sw	a5,48(sp)
40382628:	02012a23          	sw	zero,52(sp)
4038262c:	faa69ae3          	bne	a3,a0,403825e0 <z_cbvprintf_impl+0x68c>
40382630:	01079793          	slli	a5,a5,0x10
40382634:	0107d793          	srli	a5,a5,0x10
40382638:	02f12823          	sw	a5,48(sp)
4038263c:	fa5ff06f          	j	403825e0 <z_cbvprintf_impl+0x68c>
40382640:	000ca503          	lw	a0,0(s9)
40382644:	004c8713          	addi	a4,s9,4
40382648:	02a12823          	sw	a0,48(sp)
4038264c:	02012a23          	sw	zero,52(sp)
40382650:	f91ff06f          	j	403825e0 <z_cbvprintf_impl+0x68c>
40382654:	04314703          	lbu	a4,67(sp)
40382658:	06300793          	li	a5,99
4038265c:	04f71263          	bne	a4,a5,403826a0 <z_cbvprintf_impl+0x74c>
40382660:	000ca783          	lw	a5,0(s9)
40382664:	41f7d713          	srai	a4,a5,0x1f
40382668:	004c8c93          	addi	s9,s9,4
4038266c:	02f12823          	sw	a5,48(sp)
40382670:	02e12a23          	sw	a4,52(sp)
40382674:	00367613          	andi	a2,a2,3
40382678:	0a060663          	beqz	a2,40382724 <z_cbvprintf_impl+0x7d0>
4038267c:	00812583          	lw	a1,8(sp)
40382680:	00098693          	mv	a3,s3
40382684:	00040613          	mv	a2,s0
40382688:	00048513          	mv	a0,s1
4038268c:	84dff0ef          	jal	ra,40381ed8 <outs>
40382690:	3a054463          	bltz	a0,40382a38 <z_cbvprintf_impl+0xae4>
40382694:	00ad0d33          	add	s10,s10,a0
40382698:	00098413          	mv	s0,s3
4038269c:	909ff06f          	j	40381fa4 <z_cbvprintf_impl+0x50>
403826a0:	000ca783          	lw	a5,0(s9)
403826a4:	00000713          	li	a4,0
403826a8:	fc1ff06f          	j	40382668 <z_cbvprintf_impl+0x714>
403826ac:	0ff7f793          	zext.b	a5,a5
403826b0:	02f12823          	sw	a5,48(sp)
403826b4:	f99ff06f          	j	4038264c <z_cbvprintf_impl+0x6f8>
403826b8:	00400793          	li	a5,4
403826bc:	04f51a63          	bne	a0,a5,40382710 <z_cbvprintf_impl+0x7bc>
403826c0:	00800793          	li	a5,8
403826c4:	02f69663          	bne	a3,a5,403826f0 <z_cbvprintf_impl+0x79c>
403826c8:	000ca783          	lw	a5,0(s9)
403826cc:	0007a703          	lw	a4,0(a5)
403826d0:	02e12823          	sw	a4,48(sp)
403826d4:	0047a703          	lw	a4,4(a5)
403826d8:	02e12a23          	sw	a4,52(sp)
403826dc:	0087a703          	lw	a4,8(a5)
403826e0:	00c7a783          	lw	a5,12(a5)
403826e4:	02e12c23          	sw	a4,56(sp)
403826e8:	02f12e23          	sw	a5,60(sp)
403826ec:	ee5ff06f          	j	403825d0 <z_cbvprintf_impl+0x67c>
403826f0:	007c8793          	addi	a5,s9,7
403826f4:	ff87f793          	andi	a5,a5,-8
403826f8:	0007a703          	lw	a4,0(a5)
403826fc:	00878c93          	addi	s9,a5,8
40382700:	0047a783          	lw	a5,4(a5)
40382704:	02e12823          	sw	a4,48(sp)
40382708:	02f12a23          	sw	a5,52(sp)
4038270c:	f69ff06f          	j	40382674 <z_cbvprintf_impl+0x720>
40382710:	00300793          	li	a5,3
40382714:	f6f510e3          	bne	a0,a5,40382674 <z_cbvprintf_impl+0x720>
40382718:	000ca783          	lw	a5,0(s9)
4038271c:	02f12823          	sw	a5,48(sp)
40382720:	eb1ff06f          	j	403825d0 <z_cbvprintf_impl+0x67c>
40382724:	04314783          	lbu	a5,67(sp)
40382728:	07800713          	li	a4,120
4038272c:	f6f766e3          	bltu	a4,a5,40382698 <z_cbvprintf_impl+0x744>
40382730:	06200713          	li	a4,98
40382734:	00f76e63          	bltu	a4,a5,40382750 <z_cbvprintf_impl+0x7fc>
40382738:	02500713          	li	a4,37
4038273c:	02e78e63          	beq	a5,a4,40382778 <z_cbvprintf_impl+0x824>
40382740:	05800713          	li	a4,88
40382744:	f4e79ae3          	bne	a5,a4,40382698 <z_cbvprintf_impl+0x744>
40382748:	00000d93          	li	s11,0
4038274c:	1b00006f          	j	403828fc <z_cbvprintf_impl+0x9a8>
40382750:	f9d78793          	addi	a5,a5,-99
40382754:	0ff7f793          	zext.b	a5,a5
40382758:	01500713          	li	a4,21
4038275c:	f2f76ee3          	bltu	a4,a5,40382698 <z_cbvprintf_impl+0x744>
40382760:	3c000737          	lui	a4,0x3c000
40382764:	00279793          	slli	a5,a5,0x2
40382768:	68070713          	addi	a4,a4,1664 # 3c000680 <esp32_gpio_ports_addrs+0x10>
4038276c:	00e787b3          	add	a5,a5,a4
40382770:	0007a783          	lw	a5,0(a5)
40382774:	00078067          	jr	a5
40382778:	00812583          	lw	a1,8(sp)
4038277c:	02500513          	li	a0,37
40382780:	841ff06f          	j	40381fc0 <z_cbvprintf_impl+0x6c>
40382784:	03012403          	lw	s0,48(sp)
40382788:	100bc663          	bltz	s7,40382894 <z_cbvprintf_impl+0x940>
4038278c:	000b8593          	mv	a1,s7
40382790:	00040513          	mv	a0,s0
40382794:	440000ef          	jal	ra,40382bd4 <strnlen>
40382798:	00a40b33          	add	s6,s0,a0
4038279c:	00000d93          	li	s11,0
403827a0:	ee040ce3          	beqz	s0,40382698 <z_cbvprintf_impl+0x744>
403827a4:	04214783          	lbu	a5,66(sp)
403827a8:	0107fc13          	andi	s8,a5,16
403827ac:	260c0263          	beqz	s8,40382a10 <z_cbvprintf_impl+0xabc>
403827b0:	00250513          	addi	a0,a0,2
403827b4:	04412b83          	lw	s7,68(sp)
403827b8:	0407f793          	andi	a5,a5,64
403827bc:	01750533          	add	a0,a0,s7
403827c0:	00078663          	beqz	a5,403827cc <z_cbvprintf_impl+0x878>
403827c4:	04812783          	lw	a5,72(sp)
403827c8:	00f50533          	add	a0,a0,a5
403827cc:	07505063          	blez	s5,4038282c <z_cbvprintf_impl+0x8d8>
403827d0:	04012783          	lw	a5,64(sp)
403827d4:	40aa8ab3          	sub	s5,s5,a0
403827d8:	0027d793          	srli	a5,a5,0x2
403827dc:	0017f793          	andi	a5,a5,1
403827e0:	04079663          	bnez	a5,4038282c <z_cbvprintf_impl+0x8d8>
403827e4:	04015783          	lhu	a5,64(sp)
403827e8:	0407f793          	andi	a5,a5,64
403827ec:	28078463          	beqz	a5,40382a74 <z_cbvprintf_impl+0xb20>
403827f0:	280d8663          	beqz	s11,40382a7c <z_cbvprintf_impl+0xb28>
403827f4:	00812583          	lw	a1,8(sp)
403827f8:	000d8513          	mv	a0,s11
403827fc:	000480e7          	jalr	s1
40382800:	22054c63          	bltz	a0,40382a38 <z_cbvprintf_impl+0xae4>
40382804:	001d0d13          	addi	s10,s10,1
40382808:	03000713          	li	a4,48
4038280c:	00000d93          	li	s11,0
40382810:	000a8913          	mv	s2,s5
40382814:	00090693          	mv	a3,s2
40382818:	fff90913          	addi	s2,s2,-1
4038281c:	20d04263          	bgtz	a3,40382a20 <z_cbvprintf_impl+0xacc>
40382820:	01aa8d33          	add	s10,s5,s10
40382824:	40dd0d33          	sub	s10,s10,a3
40382828:	00090a93          	mv	s5,s2
4038282c:	000d8c63          	beqz	s11,40382844 <z_cbvprintf_impl+0x8f0>
40382830:	00812583          	lw	a1,8(sp)
40382834:	000d8513          	mv	a0,s11
40382838:	000480e7          	jalr	s1
4038283c:	1e054e63          	bltz	a0,40382a38 <z_cbvprintf_impl+0xae4>
40382840:	001d0d13          	addi	s10,s10,1
40382844:	04012783          	lw	a5,64(sp)
40382848:	0147d713          	srli	a4,a5,0x14
4038284c:	00177713          	andi	a4,a4,1
40382850:	00071863          	bnez	a4,40382860 <z_cbvprintf_impl+0x90c>
40382854:	0137d793          	srli	a5,a5,0x13
40382858:	0017f793          	andi	a5,a5,1
4038285c:	00078c63          	beqz	a5,40382874 <z_cbvprintf_impl+0x920>
40382860:	00812583          	lw	a1,8(sp)
40382864:	03000513          	li	a0,48
40382868:	000480e7          	jalr	s1
4038286c:	1c054663          	bltz	a0,40382a38 <z_cbvprintf_impl+0xae4>
40382870:	001d0d13          	addi	s10,s10,1
40382874:	000c0c63          	beqz	s8,4038288c <z_cbvprintf_impl+0x938>
40382878:	00812583          	lw	a1,8(sp)
4038287c:	04314503          	lbu	a0,67(sp)
40382880:	000480e7          	jalr	s1
40382884:	1a054a63          	bltz	a0,40382a38 <z_cbvprintf_impl+0xae4>
40382888:	001d0d13          	addi	s10,s10,1
4038288c:	01ab8bb3          	add	s7,s7,s10
40382890:	2080006f          	j	40382a98 <z_cbvprintf_impl+0xb44>
40382894:	00040513          	mv	a0,s0
40382898:	31c000ef          	jal	ra,40382bb4 <strlen>
4038289c:	efdff06f          	j	40382798 <z_cbvprintf_impl+0x844>
403828a0:	03012783          	lw	a5,48(sp)
403828a4:	01810413          	addi	s0,sp,24
403828a8:	01910b13          	addi	s6,sp,25
403828ac:	00f10c23          	sb	a5,24(sp)
403828b0:	00000d93          	li	s11,0
403828b4:	00100513          	li	a0,1
403828b8:	eedff06f          	j	403827a4 <z_cbvprintf_impl+0x850>
403828bc:	04015783          	lhu	a5,64(sp)
403828c0:	02b00d93          	li	s11,43
403828c4:	0087f713          	andi	a4,a5,8
403828c8:	00071663          	bnez	a4,403828d4 <z_cbvprintf_impl+0x980>
403828cc:	00179793          	slli	a5,a5,0x1
403828d0:	0207fd93          	andi	s11,a5,32
403828d4:	03412783          	lw	a5,52(sp)
403828d8:	03012703          	lw	a4,48(sp)
403828dc:	0207d063          	bgez	a5,403828fc <z_cbvprintf_impl+0x9a8>
403828e0:	40e006b3          	neg	a3,a4
403828e4:	40f007b3          	neg	a5,a5
403828e8:	00e03733          	snez	a4,a4
403828ec:	40e787b3          	sub	a5,a5,a4
403828f0:	02d12823          	sw	a3,48(sp)
403828f4:	02f12a23          	sw	a5,52(sp)
403828f8:	02d00d93          	li	s11,45
403828fc:	03012503          	lw	a0,48(sp)
40382900:	03412583          	lw	a1,52(sp)
40382904:	02e10713          	addi	a4,sp,46
40382908:	01810693          	addi	a3,sp,24
4038290c:	04010613          	addi	a2,sp,64
40382910:	c64ff0ef          	jal	ra,40381d74 <encode_uint>
40382914:	00050413          	mv	s0,a0
40382918:	020bc263          	bltz	s7,4038293c <z_cbvprintf_impl+0x9e8>
4038291c:	04015703          	lhu	a4,64(sp)
40382920:	02e10793          	addi	a5,sp,46
40382924:	408787b3          	sub	a5,a5,s0
40382928:	fbf77713          	andi	a4,a4,-65
4038292c:	04e11023          	sh	a4,64(sp)
40382930:	0177f663          	bgeu	a5,s7,4038293c <z_cbvprintf_impl+0x9e8>
40382934:	40fb87b3          	sub	a5,s7,a5
40382938:	04f12223          	sw	a5,68(sp)
4038293c:	d4040ee3          	beqz	s0,40382698 <z_cbvprintf_impl+0x744>
40382940:	02e10793          	addi	a5,sp,46
40382944:	40878533          	sub	a0,a5,s0
40382948:	00078b13          	mv	s6,a5
4038294c:	e40d8ce3          	beqz	s11,403827a4 <z_cbvprintf_impl+0x850>
40382950:	00150513          	addi	a0,a0,1
40382954:	e51ff06f          	j	403827a4 <z_cbvprintf_impl+0x850>
40382958:	03012503          	lw	a0,48(sp)
4038295c:	08050c63          	beqz	a0,403829f4 <z_cbvprintf_impl+0xaa0>
40382960:	02e10b13          	addi	s6,sp,46
40382964:	000b0713          	mv	a4,s6
40382968:	01810693          	addi	a3,sp,24
4038296c:	04010613          	addi	a2,sp,64
40382970:	00000593          	li	a1,0
40382974:	c00ff0ef          	jal	ra,40381d74 <encode_uint>
40382978:	04215783          	lhu	a5,66(sp)
4038297c:	00008737          	lui	a4,0x8
40382980:	81070713          	addi	a4,a4,-2032 # 7810 <_image_irom_size+0x30ec>
40382984:	0ef7f793          	andi	a5,a5,239
40382988:	00e7e7b3          	or	a5,a5,a4
4038298c:	04f11123          	sh	a5,66(sp)
40382990:	00050413          	mv	s0,a0
40382994:	00000d93          	li	s11,0
40382998:	f80bd2e3          	bgez	s7,4038291c <z_cbvprintf_impl+0x9c8>
4038299c:	40ab0533          	sub	a0,s6,a0
403829a0:	e00412e3          	bnez	s0,403827a4 <z_cbvprintf_impl+0x850>
403829a4:	cf5ff06f          	j	40382698 <z_cbvprintf_impl+0x744>
403829a8:	00700713          	li	a4,7
403829ac:	03012783          	lw	a5,48(sp)
403829b0:	ced764e3          	bltu	a4,a3,40382698 <z_cbvprintf_impl+0x744>
403829b4:	3c000737          	lui	a4,0x3c000
403829b8:	6d870713          	addi	a4,a4,1752 # 3c0006d8 <esp32_gpio_ports_addrs+0x68>
403829bc:	00269693          	slli	a3,a3,0x2
403829c0:	00e686b3          	add	a3,a3,a4
403829c4:	0006a703          	lw	a4,0(a3) # 4000 <CONFIG_COVERAGE_GCOV_HEAP_SIZE>
403829c8:	00070067          	jr	a4
403829cc:	01a78023          	sb	s10,0(a5)
403829d0:	cc9ff06f          	j	40382698 <z_cbvprintf_impl+0x744>
403829d4:	01a79023          	sh	s10,0(a5)
403829d8:	cc1ff06f          	j	40382698 <z_cbvprintf_impl+0x744>
403829dc:	41fd5713          	srai	a4,s10,0x1f
403829e0:	01a7a023          	sw	s10,0(a5)
403829e4:	00e7a223          	sw	a4,4(a5)
403829e8:	cb1ff06f          	j	40382698 <z_cbvprintf_impl+0x744>
403829ec:	01a7a023          	sw	s10,0(a5)
403829f0:	ca9ff06f          	j	40382698 <z_cbvprintf_impl+0x744>
403829f4:	3c000437          	lui	s0,0x3c000
403829f8:	3c000b37          	lui	s6,0x3c000
403829fc:	67840413          	addi	s0,s0,1656 # 3c000678 <esp32_gpio_ports_addrs+0x8>
40382a00:	67db0b13          	addi	s6,s6,1661 # 3c00067d <esp32_gpio_ports_addrs+0xd>
40382a04:	00000d93          	li	s11,0
40382a08:	00500513          	li	a0,5
40382a0c:	d99ff06f          	j	403827a4 <z_cbvprintf_impl+0x850>
40382a10:	0087f713          	andi	a4,a5,8
40382a14:	da0700e3          	beqz	a4,403827b4 <z_cbvprintf_impl+0x860>
40382a18:	00150513          	addi	a0,a0,1
40382a1c:	d99ff06f          	j	403827b4 <z_cbvprintf_impl+0x860>
40382a20:	00812583          	lw	a1,8(sp)
40382a24:	00070513          	mv	a0,a4
40382a28:	00e12623          	sw	a4,12(sp)
40382a2c:	000480e7          	jalr	s1
40382a30:	00c12703          	lw	a4,12(sp)
40382a34:	de0550e3          	bgez	a0,40382814 <z_cbvprintf_impl+0x8c0>
40382a38:	08c12083          	lw	ra,140(sp)
40382a3c:	08812403          	lw	s0,136(sp)
40382a40:	08412483          	lw	s1,132(sp)
40382a44:	08012903          	lw	s2,128(sp)
40382a48:	07c12983          	lw	s3,124(sp)
40382a4c:	07812a03          	lw	s4,120(sp)
40382a50:	07412a83          	lw	s5,116(sp)
40382a54:	07012b03          	lw	s6,112(sp)
40382a58:	06c12b83          	lw	s7,108(sp)
40382a5c:	06812c03          	lw	s8,104(sp)
40382a60:	06412c83          	lw	s9,100(sp)
40382a64:	06012d03          	lw	s10,96(sp)
40382a68:	05c12d83          	lw	s11,92(sp)
40382a6c:	09010113          	addi	sp,sp,144
40382a70:	00008067          	ret
40382a74:	02000713          	li	a4,32
40382a78:	d99ff06f          	j	40382810 <z_cbvprintf_impl+0x8bc>
40382a7c:	03000713          	li	a4,48
40382a80:	d91ff06f          	j	40382810 <z_cbvprintf_impl+0x8bc>
40382a84:	00812583          	lw	a1,8(sp)
40382a88:	03000513          	li	a0,48
40382a8c:	000480e7          	jalr	s1
40382a90:	fa0544e3          	bltz	a0,40382a38 <z_cbvprintf_impl+0xae4>
40382a94:	001d0d13          	addi	s10,s10,1
40382a98:	41ab87b3          	sub	a5,s7,s10
40382a9c:	fef044e3          	bgtz	a5,40382a84 <z_cbvprintf_impl+0xb30>
40382aa0:	00812583          	lw	a1,8(sp)
40382aa4:	000b0693          	mv	a3,s6
40382aa8:	00040613          	mv	a2,s0
40382aac:	00048513          	mv	a0,s1
40382ab0:	c28ff0ef          	jal	ra,40381ed8 <outs>
40382ab4:	f80542e3          	bltz	a0,40382a38 <z_cbvprintf_impl+0xae4>
40382ab8:	01a50d33          	add	s10,a0,s10
40382abc:	01aa8ab3          	add	s5,s5,s10
40382ac0:	41aa87b3          	sub	a5,s5,s10
40382ac4:	bcf05ae3          	blez	a5,40382698 <z_cbvprintf_impl+0x744>
40382ac8:	00812583          	lw	a1,8(sp)
40382acc:	02000513          	li	a0,32
40382ad0:	000480e7          	jalr	s1
40382ad4:	f60542e3          	bltz	a0,40382a38 <z_cbvprintf_impl+0xae4>
40382ad8:	001d0d13          	addi	s10,s10,1
40382adc:	fe5ff06f          	j	40382ac0 <z_cbvprintf_impl+0xb6c>

40382ae0 <char_out>:
40382ae0:	3fc857b7          	lui	a5,0x3fc85
40382ae4:	0407a783          	lw	a5,64(a5) # 3fc85040 <_char_out>
40382ae8:	00078067          	jr	a5

40382aec <vprintk>:
40382aec:	00050613          	mv	a2,a0
40382af0:	40383537          	lui	a0,0x40383
40382af4:	00058693          	mv	a3,a1
40382af8:	00000713          	li	a4,0
40382afc:	00000593          	li	a1,0
40382b00:	ae050513          	addi	a0,a0,-1312 # 40382ae0 <char_out>
40382b04:	c50ff06f          	j	40381f54 <z_cbvprintf_impl>

40382b08 <printk>:
40382b08:	fc010113          	addi	sp,sp,-64
40382b0c:	02b12223          	sw	a1,36(sp)
40382b10:	02410593          	addi	a1,sp,36
40382b14:	00112e23          	sw	ra,28(sp)
40382b18:	02c12423          	sw	a2,40(sp)
40382b1c:	02d12623          	sw	a3,44(sp)
40382b20:	02e12823          	sw	a4,48(sp)
40382b24:	02f12a23          	sw	a5,52(sp)
40382b28:	03012c23          	sw	a6,56(sp)
40382b2c:	03112e23          	sw	a7,60(sp)
40382b30:	00b12623          	sw	a1,12(sp)
40382b34:	fb9ff0ef          	jal	ra,40382aec <vprintk>
40382b38:	01c12083          	lw	ra,28(sp)
40382b3c:	04010113          	addi	sp,sp,64
40382b40:	00008067          	ret

40382b44 <console_out>:
40382b44:	ff010113          	addi	sp,sp,-16
40382b48:	00812423          	sw	s0,8(sp)
40382b4c:	00912223          	sw	s1,4(sp)
40382b50:	01212023          	sw	s2,0(sp)
40382b54:	3c0004b7          	lui	s1,0x3c000
40382b58:	00112623          	sw	ra,12(sp)
40382b5c:	00a00793          	li	a5,10
40382b60:	00050413          	mv	s0,a0
40382b64:	7b048913          	addi	s2,s1,1968 # 3c0007b0 <__device_dts_ord_43>
40382b68:	00f51c63          	bne	a0,a5,40382b80 <console_out+0x3c>
40382b6c:	00892783          	lw	a5,8(s2)
40382b70:	00d00593          	li	a1,13
40382b74:	7b048513          	addi	a0,s1,1968
40382b78:	0047a783          	lw	a5,4(a5)
40382b7c:	000780e7          	jalr	a5
40382b80:	00892783          	lw	a5,8(s2)
40382b84:	7b048513          	addi	a0,s1,1968
40382b88:	0ff47593          	zext.b	a1,s0
40382b8c:	0047a783          	lw	a5,4(a5)
40382b90:	000780e7          	jalr	a5
40382b94:	00c12083          	lw	ra,12(sp)
40382b98:	00040513          	mv	a0,s0
40382b9c:	00812403          	lw	s0,8(sp)
40382ba0:	00412483          	lw	s1,4(sp)
40382ba4:	00012903          	lw	s2,0(sp)
40382ba8:	01010113          	addi	sp,sp,16
40382bac:	00008067          	ret

40382bb0 <__start>:
40382bb0:	f2cfd06f          	j	403802dc <__esp_platform_start>

40382bb4 <strlen>:
40382bb4:	00050793          	mv	a5,a0
40382bb8:	00000513          	li	a0,0
40382bbc:	00a78733          	add	a4,a5,a0
40382bc0:	00074703          	lbu	a4,0(a4)
40382bc4:	00071463          	bnez	a4,40382bcc <strlen+0x18>
40382bc8:	00008067          	ret
40382bcc:	00150513          	addi	a0,a0,1
40382bd0:	fedff06f          	j	40382bbc <strlen+0x8>

40382bd4 <strnlen>:
40382bd4:	00050793          	mv	a5,a0
40382bd8:	00000513          	li	a0,0
40382bdc:	00a78733          	add	a4,a5,a0
40382be0:	00074703          	lbu	a4,0(a4)
40382be4:	00070463          	beqz	a4,40382bec <strnlen+0x18>
40382be8:	00b51463          	bne	a0,a1,40382bf0 <strnlen+0x1c>
40382bec:	00008067          	ret
40382bf0:	00150513          	addi	a0,a0,1
40382bf4:	fe9ff06f          	j	40382bdc <strnlen+0x8>

40382bf8 <memset>:
40382bf8:	0ff5f813          	zext.b	a6,a1
40382bfc:	00050793          	mv	a5,a0
40382c00:	0037f713          	andi	a4,a5,3
40382c04:	02071c63          	bnez	a4,40382c3c <memset+0x44>
40382c08:	01010737          	lui	a4,0x1010
40382c0c:	10170713          	addi	a4,a4,257 # 1010101 <CONFIG_SYS_CLOCK_HW_CYCLES_PER_SEC+0xcdd01>
40382c10:	0ff5f593          	zext.b	a1,a1
40382c14:	02e585b3          	mul	a1,a1,a4
40382c18:	00c786b3          	add	a3,a5,a2
40382c1c:	00078713          	mv	a4,a5
40382c20:	00300893          	li	a7,3
40382c24:	40e68333          	sub	t1,a3,a4
40382c28:	0268e463          	bltu	a7,t1,40382c50 <memset+0x58>
40382c2c:	ffc67613          	andi	a2,a2,-4
40382c30:	00f60633          	add	a2,a2,a5
40382c34:	02d61463          	bne	a2,a3,40382c5c <memset+0x64>
40382c38:	00008067          	ret
40382c3c:	fe060ee3          	beqz	a2,40382c38 <memset+0x40>
40382c40:	00178793          	addi	a5,a5,1
40382c44:	fff60613          	addi	a2,a2,-1 # 3fff <_image_irom_start+0x8a3>
40382c48:	ff078fa3          	sb	a6,-1(a5)
40382c4c:	fb5ff06f          	j	40382c00 <memset+0x8>
40382c50:	00470713          	addi	a4,a4,4
40382c54:	feb72e23          	sw	a1,-4(a4)
40382c58:	fcdff06f          	j	40382c24 <memset+0x2c>
40382c5c:	00160613          	addi	a2,a2,1
40382c60:	ff060fa3          	sb	a6,-1(a2)
40382c64:	fd1ff06f          	j	40382c34 <memset+0x3c>

Disassembly of section .flash.text:

42010020 <_OffsetAbsSyms>:
42010020:	00008067          	ret

42010024 <gpio_pin_set.isra.0>:
42010024:	00100793          	li	a5,1
42010028:	00b795b3          	sll	a1,a5,a1
4201002c:	01052783          	lw	a5,16(a0)
42010030:	0007a783          	lw	a5,0(a5)
42010034:	00f5f7b3          	and	a5,a1,a5
42010038:	00078463          	beqz	a5,42010040 <gpio_pin_set.isra.0+0x1c>
4201003c:	00164613          	xori	a2,a2,1
42010040:	00060863          	beqz	a2,42010050 <gpio_pin_set.isra.0+0x2c>
42010044:	00852783          	lw	a5,8(a0)
42010048:	00c7a783          	lw	a5,12(a5)
4201004c:	00078067          	jr	a5
42010050:	00852783          	lw	a5,8(a0)
42010054:	0107a783          	lw	a5,16(a5)
42010058:	ff5ff06f          	j	4201004c <gpio_pin_set.isra.0+0x28>

4201005c <main>:
4201005c:	ff010113          	addi	sp,sp,-16
42010060:	00112623          	sw	ra,12(sp)
42010064:	00812423          	sw	s0,8(sp)
42010068:	3c000437          	lui	s0,0x3c000
4201006c:	79840513          	addi	a0,s0,1944 # 3c000798 <__device_dts_ord_7>
42010070:	fe370097          	auipc	ra,0xfe370
42010074:	4d0080e7          	jalr	1232(ra) # 40380540 <z_device_is_ready>
42010078:	06050c63          	beqz	a0,420100f0 <main+0x94>
4201007c:	79840793          	addi	a5,s0,1944
42010080:	0107a703          	lw	a4,16(a5)
42010084:	0087a683          	lw	a3,8(a5)
42010088:	000a0637          	lui	a2,0xa0
4201008c:	00072783          	lw	a5,0(a4)
42010090:	00400593          	li	a1,4
42010094:	79840513          	addi	a0,s0,1944
42010098:	fef7f793          	andi	a5,a5,-17
4201009c:	00f72023          	sw	a5,0(a4)
420100a0:	0006a783          	lw	a5,0(a3)
420100a4:	000780e7          	jalr	a5
420100a8:	04054463          	bltz	a0,420100f0 <main+0x94>
420100ac:	00100613          	li	a2,1
420100b0:	00400593          	li	a1,4
420100b4:	79840513          	addi	a0,s0,1944
420100b8:	f6dff0ef          	jal	ra,42010024 <gpio_pin_set.isra.0>
420100bc:	00000593          	li	a1,0
420100c0:	5dc00513          	li	a0,1500
420100c4:	fe371097          	auipc	ra,0xfe371
420100c8:	2b8080e7          	jalr	696(ra) # 4038137c <z_impl_k_sleep>
420100cc:	00000613          	li	a2,0
420100d0:	00400593          	li	a1,4
420100d4:	79840513          	addi	a0,s0,1944
420100d8:	f4dff0ef          	jal	ra,42010024 <gpio_pin_set.isra.0>
420100dc:	00000593          	li	a1,0
420100e0:	5dc00513          	li	a0,1500
420100e4:	fe371097          	auipc	ra,0xfe371
420100e8:	298080e7          	jalr	664(ra) # 4038137c <z_impl_k_sleep>
420100ec:	fc1ff06f          	j	420100ac <main+0x50>
420100f0:	00c12083          	lw	ra,12(sp)
420100f4:	00812403          	lw	s0,8(sp)
420100f8:	01010113          	addi	sp,sp,16
420100fc:	00008067          	ret

42010100 <__printk_hook_install>:
42010100:	3fc857b7          	lui	a5,0x3fc85
42010104:	04a7a023          	sw	a0,64(a5) # 3fc85040 <_char_out>
42010108:	00008067          	ret

4201010c <z_thread_entry>:
4201010c:	ff010113          	addi	sp,sp,-16
42010110:	00050793          	mv	a5,a0
42010114:	00058513          	mv	a0,a1
42010118:	00060593          	mv	a1,a2
4201011c:	00068613          	mv	a2,a3
42010120:	00112623          	sw	ra,12(sp)
42010124:	000780e7          	jalr	a5
42010128:	fe371097          	auipc	ra,0xfe371
4201012c:	288080e7          	jalr	648(ra) # 403813b0 <z_impl_z_current_get>
42010130:	fe371097          	auipc	ra,0xfe371
42010134:	3ac080e7          	jalr	940(ra) # 403814dc <z_impl_k_thread_abort>

42010138 <chunk_field>:
42010138:	00852703          	lw	a4,8(a0)
4201013c:	00359593          	slli	a1,a1,0x3
42010140:	000087b7          	lui	a5,0x8
42010144:	00b505b3          	add	a1,a0,a1
42010148:	00f76a63          	bltu	a4,a5,4201015c <chunk_field+0x24>
4201014c:	00261613          	slli	a2,a2,0x2
42010150:	00c585b3          	add	a1,a1,a2
42010154:	0005a503          	lw	a0,0(a1)
42010158:	00008067          	ret
4201015c:	00161613          	slli	a2,a2,0x1
42010160:	00c585b3          	add	a1,a1,a2
42010164:	0005d503          	lhu	a0,0(a1)
42010168:	00008067          	ret

4201016c <chunk_set>:
4201016c:	00852703          	lw	a4,8(a0)
42010170:	00359593          	slli	a1,a1,0x3
42010174:	000087b7          	lui	a5,0x8
42010178:	00b505b3          	add	a1,a0,a1
4201017c:	00f76a63          	bltu	a4,a5,42010190 <chunk_set+0x24>
42010180:	00261613          	slli	a2,a2,0x2
42010184:	00c585b3          	add	a1,a1,a2
42010188:	00d5a023          	sw	a3,0(a1)
4201018c:	00008067          	ret
42010190:	00161613          	slli	a2,a2,0x1
42010194:	00c585b3          	add	a1,a1,a2
42010198:	00d59023          	sh	a3,0(a1)
4201019c:	00008067          	ret

420101a0 <chunk_size>:
420101a0:	ff010113          	addi	sp,sp,-16
420101a4:	00100613          	li	a2,1
420101a8:	00112623          	sw	ra,12(sp)
420101ac:	f8dff0ef          	jal	ra,42010138 <chunk_field>
420101b0:	00c12083          	lw	ra,12(sp)
420101b4:	00155513          	srli	a0,a0,0x1
420101b8:	01010113          	addi	sp,sp,16
420101bc:	00008067          	ret

420101c0 <set_chunk_used>:
420101c0:	00852703          	lw	a4,8(a0)
420101c4:	00359593          	slli	a1,a1,0x3
420101c8:	000087b7          	lui	a5,0x8
420101cc:	00b505b3          	add	a1,a0,a1
420101d0:	02f76063          	bltu	a4,a5,420101f0 <set_chunk_used+0x30>
420101d4:	0045a783          	lw	a5,4(a1)
420101d8:	00060863          	beqz	a2,420101e8 <set_chunk_used+0x28>
420101dc:	0017e793          	ori	a5,a5,1
420101e0:	00f5a223          	sw	a5,4(a1)
420101e4:	00008067          	ret
420101e8:	ffe7f793          	andi	a5,a5,-2
420101ec:	ff5ff06f          	j	420101e0 <set_chunk_used+0x20>
420101f0:	0025d783          	lhu	a5,2(a1)
420101f4:	00060863          	beqz	a2,42010204 <set_chunk_used+0x44>
420101f8:	0017e793          	ori	a5,a5,1
420101fc:	00f59123          	sh	a5,2(a1)
42010200:	00008067          	ret
42010204:	ffe7f793          	andi	a5,a5,-2
42010208:	ff5ff06f          	j	420101fc <set_chunk_used+0x3c>

4201020c <set_chunk_size>:
4201020c:	00161693          	slli	a3,a2,0x1
42010210:	00100613          	li	a2,1
42010214:	f59ff06f          	j	4201016c <chunk_set>

42010218 <bucket_idx.isra.0>:
42010218:	ff010113          	addi	sp,sp,-16
4201021c:	00112623          	sw	ra,12(sp)
42010220:	000087b7          	lui	a5,0x8
42010224:	02f56a63          	bltu	a0,a5,42010258 <bucket_idx.isra.0+0x40>
42010228:	00800793          	li	a5,8
4201022c:	00878793          	addi	a5,a5,8 # 8008 <_image_irom_size+0x38e4>
42010230:	0037d793          	srli	a5,a5,0x3
42010234:	00158593          	addi	a1,a1,1
42010238:	40f58533          	sub	a0,a1,a5
4201023c:	fdff0097          	auipc	ra,0xfdff0
42010240:	560080e7          	jalr	1376(ra) # 4000079c <__clzsi2>
42010244:	00c12083          	lw	ra,12(sp)
42010248:	01f00793          	li	a5,31
4201024c:	40a78533          	sub	a0,a5,a0
42010250:	01010113          	addi	sp,sp,16
42010254:	00008067          	ret
42010258:	00400793          	li	a5,4
4201025c:	fd1ff06f          	j	4201022c <bucket_idx.isra.0+0x14>

42010260 <free_list_add>:
42010260:	fe010113          	addi	sp,sp,-32
42010264:	00812c23          	sw	s0,24(sp)
42010268:	00912a23          	sw	s1,20(sp)
4201026c:	00112e23          	sw	ra,28(sp)
42010270:	01212823          	sw	s2,16(sp)
42010274:	01312623          	sw	s3,12(sp)
42010278:	00852903          	lw	s2,8(a0)
4201027c:	00058493          	mv	s1,a1
42010280:	00050413          	mv	s0,a0
42010284:	f1dff0ef          	jal	ra,420101a0 <chunk_size>
42010288:	000087b7          	lui	a5,0x8
4201028c:	00050593          	mv	a1,a0
42010290:	00f96663          	bltu	s2,a5,4201029c <free_list_add+0x3c>
42010294:	00100793          	li	a5,1
42010298:	0cf50a63          	beq	a0,a5,4201036c <free_list_add+0x10c>
4201029c:	00090513          	mv	a0,s2
420102a0:	f79ff0ef          	jal	ra,42010218 <bucket_idx.isra.0>
420102a4:	00251793          	slli	a5,a0,0x2
420102a8:	00f407b3          	add	a5,s0,a5
420102ac:	0107a903          	lw	s2,16(a5) # 8010 <_image_irom_size+0x38ec>
420102b0:	04091e63          	bnez	s2,4201030c <free_list_add+0xac>
420102b4:	00c42703          	lw	a4,12(s0)
420102b8:	00100693          	li	a3,1
420102bc:	00a696b3          	sll	a3,a3,a0
420102c0:	00d76733          	or	a4,a4,a3
420102c4:	00e42623          	sw	a4,12(s0)
420102c8:	00048693          	mv	a3,s1
420102cc:	00200613          	li	a2,2
420102d0:	00048593          	mv	a1,s1
420102d4:	0097a823          	sw	s1,16(a5)
420102d8:	00040513          	mv	a0,s0
420102dc:	e91ff0ef          	jal	ra,4201016c <chunk_set>
420102e0:	00048693          	mv	a3,s1
420102e4:	00300613          	li	a2,3
420102e8:	00048593          	mv	a1,s1
420102ec:	00040513          	mv	a0,s0
420102f0:	01812403          	lw	s0,24(sp)
420102f4:	01c12083          	lw	ra,28(sp)
420102f8:	01412483          	lw	s1,20(sp)
420102fc:	01012903          	lw	s2,16(sp)
42010300:	00c12983          	lw	s3,12(sp)
42010304:	02010113          	addi	sp,sp,32
42010308:	e65ff06f          	j	4201016c <chunk_set>
4201030c:	00200613          	li	a2,2
42010310:	00090593          	mv	a1,s2
42010314:	00040513          	mv	a0,s0
42010318:	e21ff0ef          	jal	ra,42010138 <chunk_field>
4201031c:	00050693          	mv	a3,a0
42010320:	00050993          	mv	s3,a0
42010324:	00200613          	li	a2,2
42010328:	00048593          	mv	a1,s1
4201032c:	00040513          	mv	a0,s0
42010330:	e3dff0ef          	jal	ra,4201016c <chunk_set>
42010334:	00090693          	mv	a3,s2
42010338:	00300613          	li	a2,3
4201033c:	00048593          	mv	a1,s1
42010340:	00040513          	mv	a0,s0
42010344:	e29ff0ef          	jal	ra,4201016c <chunk_set>
42010348:	00048693          	mv	a3,s1
4201034c:	00300613          	li	a2,3
42010350:	00098593          	mv	a1,s3
42010354:	00040513          	mv	a0,s0
42010358:	e15ff0ef          	jal	ra,4201016c <chunk_set>
4201035c:	00048693          	mv	a3,s1
42010360:	00200613          	li	a2,2
42010364:	00090593          	mv	a1,s2
42010368:	f85ff06f          	j	420102ec <free_list_add+0x8c>
4201036c:	01c12083          	lw	ra,28(sp)
42010370:	01812403          	lw	s0,24(sp)
42010374:	01412483          	lw	s1,20(sp)
42010378:	01012903          	lw	s2,16(sp)
4201037c:	00c12983          	lw	s3,12(sp)
42010380:	02010113          	addi	sp,sp,32
42010384:	00008067          	ret

42010388 <sys_heap_init>:
42010388:	fe010113          	addi	sp,sp,-32
4201038c:	00112e23          	sw	ra,28(sp)
42010390:	00812c23          	sw	s0,24(sp)
42010394:	00912a23          	sw	s1,20(sp)
42010398:	01212823          	sw	s2,16(sp)
4201039c:	01312623          	sw	s3,12(sp)
420103a0:	00040737          	lui	a4,0x40
420103a4:	00400793          	li	a5,4
420103a8:	00e66463          	bltu	a2,a4,420103b0 <sys_heap_init+0x28>
420103ac:	00800793          	li	a5,8
420103b0:	40f60633          	sub	a2,a2,a5
420103b4:	00c58433          	add	s0,a1,a2
420103b8:	00758493          	addi	s1,a1,7
420103bc:	ff84f493          	andi	s1,s1,-8
420103c0:	ff847413          	andi	s0,s0,-8
420103c4:	40940433          	sub	s0,s0,s1
420103c8:	00952023          	sw	s1,0(a0)
420103cc:	00345413          	srli	s0,s0,0x3
420103d0:	0084a423          	sw	s0,8(s1)
420103d4:	0004a623          	sw	zero,12(s1)
420103d8:	00040593          	mv	a1,s0
420103dc:	00040513          	mv	a0,s0
420103e0:	e39ff0ef          	jal	ra,42010218 <bucket_idx.isra.0>
420103e4:	00251913          	slli	s2,a0,0x2
420103e8:	01b90913          	addi	s2,s2,27
420103ec:	00395913          	srli	s2,s2,0x3
420103f0:	01048713          	addi	a4,s1,16
420103f4:	00000793          	li	a5,0
420103f8:	0af55c63          	bge	a0,a5,420104b0 <sys_heap_init+0x128>
420103fc:	00090613          	mv	a2,s2
42010400:	00048513          	mv	a0,s1
42010404:	00000593          	li	a1,0
42010408:	e05ff0ef          	jal	ra,4201020c <set_chunk_size>
4201040c:	00000693          	li	a3,0
42010410:	00048513          	mv	a0,s1
42010414:	00000613          	li	a2,0
42010418:	00000593          	li	a1,0
4201041c:	d51ff0ef          	jal	ra,4201016c <chunk_set>
42010420:	00048513          	mv	a0,s1
42010424:	00100613          	li	a2,1
42010428:	00000593          	li	a1,0
4201042c:	d95ff0ef          	jal	ra,420101c0 <set_chunk_used>
42010430:	412409b3          	sub	s3,s0,s2
42010434:	00098613          	mv	a2,s3
42010438:	00090593          	mv	a1,s2
4201043c:	00048513          	mv	a0,s1
42010440:	dcdff0ef          	jal	ra,4201020c <set_chunk_size>
42010444:	00090693          	mv	a3,s2
42010448:	00090593          	mv	a1,s2
4201044c:	00048513          	mv	a0,s1
42010450:	00000613          	li	a2,0
42010454:	d19ff0ef          	jal	ra,4201016c <chunk_set>
42010458:	00040593          	mv	a1,s0
4201045c:	00048513          	mv	a0,s1
42010460:	00000613          	li	a2,0
42010464:	da9ff0ef          	jal	ra,4201020c <set_chunk_size>
42010468:	00098693          	mv	a3,s3
4201046c:	00040593          	mv	a1,s0
42010470:	00048513          	mv	a0,s1
42010474:	00000613          	li	a2,0
42010478:	cf5ff0ef          	jal	ra,4201016c <chunk_set>
4201047c:	00040593          	mv	a1,s0
42010480:	00048513          	mv	a0,s1
42010484:	00100613          	li	a2,1
42010488:	d39ff0ef          	jal	ra,420101c0 <set_chunk_used>
4201048c:	01812403          	lw	s0,24(sp)
42010490:	01c12083          	lw	ra,28(sp)
42010494:	00c12983          	lw	s3,12(sp)
42010498:	00090593          	mv	a1,s2
4201049c:	00048513          	mv	a0,s1
420104a0:	01012903          	lw	s2,16(sp)
420104a4:	01412483          	lw	s1,20(sp)
420104a8:	02010113          	addi	sp,sp,32
420104ac:	db5ff06f          	j	42010260 <free_list_add>
420104b0:	00072023          	sw	zero,0(a4) # 40000 <_image_irom_size+0x3b8dc>
420104b4:	00178793          	addi	a5,a5,1
420104b8:	00470713          	addi	a4,a4,4
420104bc:	f3dff06f          	j	420103f8 <sys_heap_init+0x70>

420104c0 <_ConfigAbsSyms>:
420104c0:	00008067          	ret

420104c4 <arch_cpu_idle>:
420104c4:	00800793          	li	a5,8
420104c8:	3007a073          	csrs	mstatus,a5
420104cc:	10500073          	wfi
420104d0:	00008067          	ret

420104d4 <arch_irq_enable>:
420104d4:	7650206f          	j	42013438 <esp_intr_enable>

420104d8 <arch_irq_disable>:
420104d8:	6bd0206f          	j	42013394 <esp_intr_disable>

420104dc <soc_intr_get_next_source>:
420104dc:	ff010113          	addi	sp,sp,-16
420104e0:	00912223          	sw	s1,4(sp)
420104e4:	00112623          	sw	ra,12(sp)
420104e8:	00812423          	sw	s0,8(sp)
420104ec:	600c24b7          	lui	s1,0x600c2
420104f0:	0f84a403          	lw	s0,248(s1) # 600c20f8 <USB_SERIAL_JTAG+0x7f0f8>
420104f4:	00000513          	li	a0,0
420104f8:	044030ef          	jal	ra,4201353c <esp_intr_get_enabled_intmask>
420104fc:	00a47533          	and	a0,s0,a0
42010500:	02050263          	beqz	a0,42010524 <soc_intr_get_next_source+0x48>
42010504:	fdff0097          	auipc	ra,0xfdff0
42010508:	2d0080e7          	jalr	720(ra) # 400007d4 <__ffssi2>
4201050c:	fff50513          	addi	a0,a0,-1
42010510:	00c12083          	lw	ra,12(sp)
42010514:	00812403          	lw	s0,8(sp)
42010518:	00412483          	lw	s1,4(sp)
4201051c:	01010113          	addi	sp,sp,16
42010520:	00008067          	ret
42010524:	0fc4a403          	lw	s0,252(s1)
42010528:	00100513          	li	a0,1
4201052c:	010030ef          	jal	ra,4201353c <esp_intr_get_enabled_intmask>
42010530:	00a47533          	and	a0,s0,a0
42010534:	fdff0097          	auipc	ra,0xfdff0
42010538:	2a0080e7          	jalr	672(ra) # 400007d4 <__ffssi2>
4201053c:	01f50513          	addi	a0,a0,31
42010540:	fd1ff06f          	j	42010510 <soc_intr_get_next_source+0x34>

42010544 <uart_ll_set_baudrate>:
42010544:	07852783          	lw	a5,120(a0)
42010548:	00200713          	li	a4,2
4201054c:	ff010113          	addi	sp,sp,-16
42010550:	0147d793          	srli	a5,a5,0x14
42010554:	0037f793          	andi	a5,a5,3
42010558:	0ae78c63          	beq	a5,a4,42010610 <uart_ll_set_baudrate+0xcc>
4201055c:	00300713          	li	a4,3
42010560:	0ae78e63          	beq	a5,a4,4201061c <uart_ll_set_baudrate+0xd8>
42010564:	04c4b7b7          	lui	a5,0x4c4b
42010568:	40078793          	addi	a5,a5,1024 # 4c4b400 <CONFIG_SYS_CLOCK_HW_CYCLES_PER_SEC+0x3d09000>
4201056c:	000016b7          	lui	a3,0x1
42010570:	fff68693          	addi	a3,a3,-1 # fff <CONFIG_ISR_STACK_SIZE+0x7ff>
42010574:	02d58633          	mul	a2,a1,a3
42010578:	fff60713          	addi	a4,a2,-1 # 9ffff <_image_irom_size+0x9b8db>
4201057c:	00f70733          	add	a4,a4,a5
42010580:	02c75733          	divu	a4,a4,a2
42010584:	00479793          	slli	a5,a5,0x4
42010588:	02b705b3          	mul	a1,a4,a1
4201058c:	fff70713          	addi	a4,a4,-1
42010590:	0ff77713          	zext.b	a4,a4
42010594:	00c71713          	slli	a4,a4,0xc
42010598:	02b7d7b3          	divu	a5,a5,a1
4201059c:	fffff5b7          	lui	a1,0xfffff
420105a0:	0047d613          	srli	a2,a5,0x4
420105a4:	00d67633          	and	a2,a2,a3
420105a8:	01452683          	lw	a3,20(a0)
420105ac:	01061613          	slli	a2,a2,0x10
420105b0:	01065613          	srli	a2,a2,0x10
420105b4:	00b6f6b3          	and	a3,a3,a1
420105b8:	00c6e6b3          	or	a3,a3,a2
420105bc:	00d52a23          	sw	a3,20(a0)
420105c0:	01452683          	lw	a3,20(a0)
420105c4:	ff100637          	lui	a2,0xff100
420105c8:	00f7f793          	andi	a5,a5,15
420105cc:	fff60613          	addi	a2,a2,-1 # ff0fffff <CONFIG_SYSTEM_WORKQUEUE_PRIORITY+0xff100000>
420105d0:	00c6f6b3          	and	a3,a3,a2
420105d4:	01479793          	slli	a5,a5,0x14
420105d8:	00f6e7b3          	or	a5,a3,a5
420105dc:	00f52a23          	sw	a5,20(a0)
420105e0:	07852783          	lw	a5,120(a0)
420105e4:	fff016b7          	lui	a3,0xfff01
420105e8:	fff68693          	addi	a3,a3,-1 # fff00fff <CONFIG_SYSTEM_WORKQUEUE_PRIORITY+0xfff01000>
420105ec:	00f12623          	sw	a5,12(sp)
420105f0:	00c12783          	lw	a5,12(sp)
420105f4:	00d7f7b3          	and	a5,a5,a3
420105f8:	00e7e7b3          	or	a5,a5,a4
420105fc:	00f12623          	sw	a5,12(sp)
42010600:	00c12783          	lw	a5,12(sp)
42010604:	06f52c23          	sw	a5,120(a0)
42010608:	01010113          	addi	sp,sp,16
4201060c:	00008067          	ret
42010610:	013137b7          	lui	a5,0x1313
42010614:	d0078793          	addi	a5,a5,-768 # 1312d00 <CONFIG_SYS_CLOCK_HW_CYCLES_PER_SEC+0x3d0900>
42010618:	f55ff06f          	j	4201056c <uart_ll_set_baudrate+0x28>
4201061c:	026267b7          	lui	a5,0x2626
42010620:	a0078793          	addi	a5,a5,-1536 # 2625a00 <CONFIG_SYS_CLOCK_HW_CYCLES_PER_SEC+0x16e3600>
42010624:	f49ff06f          	j	4201056c <uart_ll_set_baudrate+0x28>

42010628 <uart_hal_set_sclk>:
42010628:	00100713          	li	a4,1
4201062c:	00052783          	lw	a5,0(a0)
42010630:	02e58663          	beq	a1,a4,4201065c <uart_hal_set_sclk+0x34>
42010634:	00200713          	li	a4,2
42010638:	02e58e63          	beq	a1,a4,42010674 <uart_hal_set_sclk+0x4c>
4201063c:	0787a703          	lw	a4,120(a5)
42010640:	ffd006b7          	lui	a3,0xffd00
42010644:	fff68693          	addi	a3,a3,-1 # ffcfffff <CONFIG_SYSTEM_WORKQUEUE_PRIORITY+0xffd00000>
42010648:	00d77733          	and	a4,a4,a3
4201064c:	001006b7          	lui	a3,0x100
42010650:	00d76733          	or	a4,a4,a3
42010654:	06e7ac23          	sw	a4,120(a5)
42010658:	00008067          	ret
4201065c:	0787a703          	lw	a4,120(a5)
42010660:	ffd006b7          	lui	a3,0xffd00
42010664:	fff68693          	addi	a3,a3,-1 # ffcfffff <CONFIG_SYSTEM_WORKQUEUE_PRIORITY+0xffd00000>
42010668:	00d77733          	and	a4,a4,a3
4201066c:	002006b7          	lui	a3,0x200
42010670:	fe1ff06f          	j	42010650 <uart_hal_set_sclk+0x28>
42010674:	0787a703          	lw	a4,120(a5)
42010678:	003006b7          	lui	a3,0x300
4201067c:	fd5ff06f          	j	42010650 <uart_hal_set_sclk+0x28>

42010680 <uart_hal_set_baudrate>:
42010680:	00052503          	lw	a0,0(a0)
42010684:	ec1ff06f          	j	42010544 <uart_ll_set_baudrate>

42010688 <uart_hal_set_stop_bits>:
42010688:	00052703          	lw	a4,0(a0)
4201068c:	0035f593          	andi	a1,a1,3
42010690:	00459593          	slli	a1,a1,0x4
42010694:	02072783          	lw	a5,32(a4)
42010698:	fcf7f793          	andi	a5,a5,-49
4201069c:	00b7e7b3          	or	a5,a5,a1
420106a0:	02f72023          	sw	a5,32(a4)
420106a4:	00008067          	ret

420106a8 <uart_hal_get_stop_bits>:
420106a8:	00052783          	lw	a5,0(a0)
420106ac:	0207a783          	lw	a5,32(a5)
420106b0:	0047d793          	srli	a5,a5,0x4
420106b4:	0037f793          	andi	a5,a5,3
420106b8:	00f5a023          	sw	a5,0(a1) # fffff000 <CONFIG_SYSTEM_WORKQUEUE_PRIORITY+0xfffff001>
420106bc:	00008067          	ret

420106c0 <uart_hal_set_data_bit_num>:
420106c0:	00052703          	lw	a4,0(a0)
420106c4:	0035f593          	andi	a1,a1,3
420106c8:	00259593          	slli	a1,a1,0x2
420106cc:	02072783          	lw	a5,32(a4)
420106d0:	ff37f793          	andi	a5,a5,-13
420106d4:	00b7e7b3          	or	a5,a5,a1
420106d8:	02f72023          	sw	a5,32(a4)
420106dc:	00008067          	ret

420106e0 <uart_hal_get_data_bit_num>:
420106e0:	00052783          	lw	a5,0(a0)
420106e4:	0207a783          	lw	a5,32(a5)
420106e8:	0027d793          	srli	a5,a5,0x2
420106ec:	0037f793          	andi	a5,a5,3
420106f0:	00f5a023          	sw	a5,0(a1)
420106f4:	00008067          	ret

420106f8 <uart_hal_set_parity>:
420106f8:	00052703          	lw	a4,0(a0)
420106fc:	00058c63          	beqz	a1,42010714 <uart_hal_set_parity+0x1c>
42010700:	02072783          	lw	a5,32(a4)
42010704:	0015f693          	andi	a3,a1,1
42010708:	ffe7f793          	andi	a5,a5,-2
4201070c:	00d7e7b3          	or	a5,a5,a3
42010710:	02f72023          	sw	a5,32(a4)
42010714:	02072783          	lw	a5,32(a4)
42010718:	0025f593          	andi	a1,a1,2
4201071c:	ffd7f793          	andi	a5,a5,-3
42010720:	00b7e7b3          	or	a5,a5,a1
42010724:	02f72023          	sw	a5,32(a4)
42010728:	00008067          	ret

4201072c <uart_hal_get_parity>:
4201072c:	00052683          	lw	a3,0(a0)
42010730:	00000793          	li	a5,0
42010734:	0206a703          	lw	a4,32(a3) # 300020 <_image_irom_size+0x2fb8fc>
42010738:	00175713          	srli	a4,a4,0x1
4201073c:	00177713          	andi	a4,a4,1
42010740:	00070863          	beqz	a4,42010750 <uart_hal_get_parity+0x24>
42010744:	0206a783          	lw	a5,32(a3)
42010748:	0017f793          	andi	a5,a5,1
4201074c:	0027e793          	ori	a5,a5,2
42010750:	00f5a023          	sw	a5,0(a1)
42010754:	00008067          	ret

42010758 <uart_hal_set_hw_flow_ctrl>:
42010758:	0015f713          	andi	a4,a1,1
4201075c:	00052783          	lw	a5,0(a0)
42010760:	04070663          	beqz	a4,420107ac <uart_hal_set_hw_flow_ctrl+0x54>
42010764:	0607a703          	lw	a4,96(a5)
42010768:	ffff06b7          	lui	a3,0xffff0
4201076c:	07f68693          	addi	a3,a3,127 # ffff007f <CONFIG_SYSTEM_WORKQUEUE_PRIORITY+0xffff0080>
42010770:	00d77733          	and	a4,a4,a3
42010774:	00761613          	slli	a2,a2,0x7
42010778:	00c76733          	or	a4,a4,a2
4201077c:	06e7a023          	sw	a4,96(a5)
42010780:	0247a703          	lw	a4,36(a5)
42010784:	001006b7          	lui	a3,0x100
42010788:	00d76733          	or	a4,a4,a3
4201078c:	02e7a223          	sw	a4,36(a5)
42010790:	0207a703          	lw	a4,32(a5)
42010794:	0025f593          	andi	a1,a1,2
42010798:	02058463          	beqz	a1,420107c0 <uart_hal_set_hw_flow_ctrl+0x68>
4201079c:	000086b7          	lui	a3,0x8
420107a0:	00d76733          	or	a4,a4,a3
420107a4:	02e7a023          	sw	a4,32(a5)
420107a8:	00008067          	ret
420107ac:	0247a703          	lw	a4,36(a5)
420107b0:	fff006b7          	lui	a3,0xfff00
420107b4:	fff68693          	addi	a3,a3,-1 # ffefffff <CONFIG_SYSTEM_WORKQUEUE_PRIORITY+0xfff00000>
420107b8:	00d77733          	and	a4,a4,a3
420107bc:	fd1ff06f          	j	4201078c <uart_hal_set_hw_flow_ctrl+0x34>
420107c0:	ffff86b7          	lui	a3,0xffff8
420107c4:	fff68693          	addi	a3,a3,-1 # ffff7fff <CONFIG_SYSTEM_WORKQUEUE_PRIORITY+0xffff8000>
420107c8:	00d77733          	and	a4,a4,a3
420107cc:	fd9ff06f          	j	420107a4 <uart_hal_set_hw_flow_ctrl+0x4c>

420107d0 <uart_hal_get_hw_flow_ctrl>:
420107d0:	00052703          	lw	a4,0(a0)
420107d4:	0005a023          	sw	zero,0(a1)
420107d8:	02472783          	lw	a5,36(a4)
420107dc:	0147d793          	srli	a5,a5,0x14
420107e0:	0017f793          	andi	a5,a5,1
420107e4:	00f5a023          	sw	a5,0(a1)
420107e8:	02072703          	lw	a4,32(a4)
420107ec:	00f75713          	srli	a4,a4,0xf
420107f0:	00177713          	andi	a4,a4,1
420107f4:	00070663          	beqz	a4,42010800 <uart_hal_get_hw_flow_ctrl+0x30>
420107f8:	0027e793          	ori	a5,a5,2
420107fc:	00f5a023          	sw	a5,0(a1)
42010800:	00008067          	ret

42010804 <uart_hal_set_rxfifo_full_thr>:
42010804:	00052703          	lw	a4,0(a0)
42010808:	1ff5f593          	andi	a1,a1,511
4201080c:	02472783          	lw	a5,36(a4)
42010810:	e007f793          	andi	a5,a5,-512
42010814:	00b7e7b3          	or	a5,a5,a1
42010818:	02f72223          	sw	a5,36(a4)
4201081c:	00008067          	ret

42010820 <uart_hal_set_txfifo_empty_thr>:
42010820:	00052683          	lw	a3,0(a0)
42010824:	fffc0737          	lui	a4,0xfffc0
42010828:	1ff5f593          	andi	a1,a1,511
4201082c:	0246a783          	lw	a5,36(a3)
42010830:	1ff70713          	addi	a4,a4,511 # fffc01ff <CONFIG_SYSTEM_WORKQUEUE_PRIORITY+0xfffc0200>
42010834:	00959593          	slli	a1,a1,0x9
42010838:	00e7f7b3          	and	a5,a5,a4
4201083c:	00b7e7b3          	or	a5,a5,a1
42010840:	02f6a223          	sw	a5,36(a3)
42010844:	00008067          	ret

42010848 <uart_hal_get_symb_len>:
42010848:	00052603          	lw	a2,0(a0)
4201084c:	00000713          	li	a4,0
42010850:	02062783          	lw	a5,32(a2)
42010854:	02062503          	lw	a0,32(a2)
42010858:	02062683          	lw	a3,32(a2)
4201085c:	0027d793          	srli	a5,a5,0x2
42010860:	00455513          	srli	a0,a0,0x4
42010864:	0016d693          	srli	a3,a3,0x1
42010868:	0016f693          	andi	a3,a3,1
4201086c:	0037f793          	andi	a5,a5,3
42010870:	00357513          	andi	a0,a0,3
42010874:	00068863          	beqz	a3,42010884 <uart_hal_get_symb_len+0x3c>
42010878:	02062703          	lw	a4,32(a2)
4201087c:	00177713          	andi	a4,a4,1
42010880:	00276713          	ori	a4,a4,2
42010884:	00100693          	li	a3,1
42010888:	00a6b533          	sltu	a0,a3,a0
4201088c:	00e03733          	snez	a4,a4
42010890:	00678793          	addi	a5,a5,6
42010894:	00e787b3          	add	a5,a5,a4
42010898:	00150513          	addi	a0,a0,1
4201089c:	00f50533          	add	a0,a0,a5
420108a0:	00008067          	ret

420108a4 <uart_hal_set_rx_timeout>:
420108a4:	ff010113          	addi	sp,sp,-16
420108a8:	00812423          	sw	s0,8(sp)
420108ac:	00912223          	sw	s1,4(sp)
420108b0:	00058413          	mv	s0,a1
420108b4:	00050493          	mv	s1,a0
420108b8:	00112623          	sw	ra,12(sp)
420108bc:	f8dff0ef          	jal	ra,42010848 <uart_hal_get_symb_len>
420108c0:	02850533          	mul	a0,a0,s0
420108c4:	0004a783          	lw	a5,0(s1)
420108c8:	01051513          	slli	a0,a0,0x10
420108cc:	01055513          	srli	a0,a0,0x10
420108d0:	04050463          	beqz	a0,42010918 <uart_hal_set_rx_timeout+0x74>
420108d4:	0607a703          	lw	a4,96(a5)
420108d8:	fc0106b7          	lui	a3,0xfc010
420108dc:	fff68693          	addi	a3,a3,-1 # fc00ffff <CONFIG_SYSTEM_WORKQUEUE_PRIORITY+0xfc010000>
420108e0:	3ff57513          	andi	a0,a0,1023
420108e4:	00d77733          	and	a4,a4,a3
420108e8:	01051513          	slli	a0,a0,0x10
420108ec:	00a76733          	or	a4,a4,a0
420108f0:	06e7a023          	sw	a4,96(a5)
420108f4:	0247a703          	lw	a4,36(a5)
420108f8:	002006b7          	lui	a3,0x200
420108fc:	00d76733          	or	a4,a4,a3
42010900:	02e7a223          	sw	a4,36(a5)
42010904:	00c12083          	lw	ra,12(sp)
42010908:	00812403          	lw	s0,8(sp)
4201090c:	00412483          	lw	s1,4(sp)
42010910:	01010113          	addi	sp,sp,16
42010914:	00008067          	ret
42010918:	0247a703          	lw	a4,36(a5)
4201091c:	ffe006b7          	lui	a3,0xffe00
42010920:	fff68693          	addi	a3,a3,-1 # ffdfffff <CONFIG_SYSTEM_WORKQUEUE_PRIORITY+0xffe00000>
42010924:	00d77733          	and	a4,a4,a3
42010928:	fd9ff06f          	j	42010900 <uart_hal_set_rx_timeout+0x5c>

4201092c <uart_hal_rxfifo_rst>:
4201092c:	00052783          	lw	a5,0(a0)
42010930:	000206b7          	lui	a3,0x20
42010934:	0207a703          	lw	a4,32(a5)
42010938:	00d76733          	or	a4,a4,a3
4201093c:	02e7a023          	sw	a4,32(a5)
42010940:	0207a703          	lw	a4,32(a5)
42010944:	fffe06b7          	lui	a3,0xfffe0
42010948:	fff68693          	addi	a3,a3,-1 # fffdffff <CONFIG_SYSTEM_WORKQUEUE_PRIORITY+0xfffe0000>
4201094c:	00d77733          	and	a4,a4,a3
42010950:	02e7a023          	sw	a4,32(a5)
42010954:	00008067          	ret

42010958 <uart_hal_write_txfifo>:
42010958:	00052783          	lw	a5,0(a0)
4201095c:	08000713          	li	a4,128
42010960:	01c7a783          	lw	a5,28(a5)
42010964:	0107d793          	srli	a5,a5,0x10
42010968:	3ff7f793          	andi	a5,a5,1023
4201096c:	40f707b3          	sub	a5,a4,a5
42010970:	01079713          	slli	a4,a5,0x10
42010974:	01075713          	srli	a4,a4,0x10
42010978:	00e66e63          	bltu	a2,a4,42010994 <uart_hal_write_txfifo+0x3c>
4201097c:	00070613          	mv	a2,a4
42010980:	00c6a023          	sw	a2,0(a3)
42010984:	00052703          	lw	a4,0(a0)
42010988:	00000793          	li	a5,0
4201098c:	00c7ca63          	blt	a5,a2,420109a0 <uart_hal_write_txfifo+0x48>
42010990:	00008067          	ret
42010994:	01061613          	slli	a2,a2,0x10
42010998:	01065613          	srli	a2,a2,0x10
4201099c:	fe5ff06f          	j	42010980 <uart_hal_write_txfifo+0x28>
420109a0:	00f586b3          	add	a3,a1,a5
420109a4:	0006c683          	lbu	a3,0(a3)
420109a8:	00178793          	addi	a5,a5,1
420109ac:	00d72023          	sw	a3,0(a4)
420109b0:	fddff06f          	j	4201098c <uart_hal_write_txfifo+0x34>

420109b4 <uart_hal_read_rxfifo>:
420109b4:	00062783          	lw	a5,0(a2)
420109b8:	00f04a63          	bgtz	a5,420109cc <uart_hal_read_rxfifo+0x18>
420109bc:	00052783          	lw	a5,0(a0)
420109c0:	01c7a783          	lw	a5,28(a5)
420109c4:	3ff7f793          	andi	a5,a5,1023
420109c8:	00f62023          	sw	a5,0(a2)
420109cc:	00052683          	lw	a3,0(a0)
420109d0:	00062703          	lw	a4,0(a2)
420109d4:	00000793          	li	a5,0
420109d8:	00e7c463          	blt	a5,a4,420109e0 <uart_hal_read_rxfifo+0x2c>
420109dc:	00008067          	ret
420109e0:	0006a503          	lw	a0,0(a3)
420109e4:	00f58633          	add	a2,a1,a5
420109e8:	00178793          	addi	a5,a5,1
420109ec:	00a60023          	sb	a0,0(a2)
420109f0:	fe9ff06f          	j	420109d8 <uart_hal_read_rxfifo+0x24>

420109f4 <esp_timer_impl_early_init>:
420109f4:	ff010113          	addi	sp,sp,-16
420109f8:	00812423          	sw	s0,8(sp)
420109fc:	3fc83437          	lui	s0,0x3fc83
42010a00:	c8040513          	addi	a0,s0,-896 # 3fc82c80 <systimer_hal>
42010a04:	00112623          	sw	ra,12(sp)
42010a08:	4cd010ef          	jal	ra,420126d4 <systimer_hal_init>
42010a0c:	c8040513          	addi	a0,s0,-896
42010a10:	00000593          	li	a1,0
42010a14:	57d010ef          	jal	ra,42012790 <systimer_hal_enable_counter>
42010a18:	c8040513          	addi	a0,s0,-896
42010a1c:	00000613          	li	a2,0
42010a20:	00200593          	li	a1,2
42010a24:	591010ef          	jal	ra,420127b4 <systimer_hal_select_alarm_mode>
42010a28:	c8040513          	addi	a0,s0,-896
42010a2c:	00000613          	li	a2,0
42010a30:	00200593          	li	a1,2
42010a34:	5d9010ef          	jal	ra,4201280c <systimer_hal_connect_alarm_counter>
42010a38:	00c12083          	lw	ra,12(sp)
42010a3c:	00812403          	lw	s0,8(sp)
42010a40:	00000513          	li	a0,0
42010a44:	01010113          	addi	sp,sp,16
42010a48:	00008067          	ret

42010a4c <rtc_sleep_pu>:
42010a4c:	60008737          	lui	a4,0x60008
42010a50:	08872803          	lw	a6,136(a4) # 60008088 <GPIO+0x4088>
42010a54:	00157793          	andi	a5,a0,1
42010a58:	00479793          	slli	a5,a5,0x4
42010a5c:	fef87813          	andi	a6,a6,-17
42010a60:	0107e7b3          	or	a5,a5,a6
42010a64:	08f72423          	sw	a5,136(a4)
42010a68:	08472803          	lw	a6,132(a4)
42010a6c:	00155793          	srli	a5,a0,0x1
42010a70:	ffff08b7          	lui	a7,0xffff0
42010a74:	fff88893          	addi	a7,a7,-1 # fffeffff <CONFIG_SYSTEM_WORKQUEUE_PRIORITY+0xffff0000>
42010a78:	0017f793          	andi	a5,a5,1
42010a7c:	01187833          	and	a6,a6,a7
42010a80:	01079793          	slli	a5,a5,0x10
42010a84:	0107e7b3          	or	a5,a5,a6
42010a88:	08f72223          	sw	a5,132(a4)
42010a8c:	600267b7          	lui	a5,0x60026
42010a90:	09c7a703          	lw	a4,156(a5) # 6002609c <SYSTIMER+0x309c>
42010a94:	00655693          	srli	a3,a0,0x6
42010a98:	0016f693          	andi	a3,a3,1
42010a9c:	00469813          	slli	a6,a3,0x4
42010aa0:	fef77713          	andi	a4,a4,-17
42010aa4:	01076733          	or	a4,a4,a6
42010aa8:	08e7ae23          	sw	a4,156(a5)
42010aac:	09c7a703          	lw	a4,156(a5)
42010ab0:	00269813          	slli	a6,a3,0x2
42010ab4:	00455593          	srli	a1,a0,0x4
42010ab8:	ffb77713          	andi	a4,a4,-5
42010abc:	01076733          	or	a4,a4,a6
42010ac0:	08e7ae23          	sw	a4,156(a5)
42010ac4:	09c7a703          	lw	a4,156(a5)
42010ac8:	0015f593          	andi	a1,a1,1
42010acc:	00359893          	slli	a7,a1,0x3
42010ad0:	ffe77713          	andi	a4,a4,-2
42010ad4:	00d76733          	or	a4,a4,a3
42010ad8:	08e7ae23          	sw	a4,156(a5)
42010adc:	6001d737          	lui	a4,0x6001d
42010ae0:	05472803          	lw	a6,84(a4) # 6001d054 <GPIO+0x19054>
42010ae4:	00159593          	slli	a1,a1,0x1
42010ae8:	00555613          	srli	a2,a0,0x5
42010aec:	ff787813          	andi	a6,a6,-9
42010af0:	01186833          	or	a6,a6,a7
42010af4:	05072a23          	sw	a6,84(a4)
42010af8:	05472803          	lw	a6,84(a4)
42010afc:	00167613          	andi	a2,a2,1
42010b00:	ffd87813          	andi	a6,a6,-3
42010b04:	00b865b3          	or	a1,a6,a1
42010b08:	04b72a23          	sw	a1,84(a4)
42010b0c:	cd472583          	lw	a1,-812(a4)
42010b10:	00561813          	slli	a6,a2,0x5
42010b14:	fdf5f593          	andi	a1,a1,-33
42010b18:	0105e5b3          	or	a1,a1,a6
42010b1c:	ccb72a23          	sw	a1,-812(a4)
42010b20:	cd472583          	lw	a1,-812(a4)
42010b24:	00361813          	slli	a6,a2,0x3
42010b28:	00161613          	slli	a2,a2,0x1
42010b2c:	ff75f593          	andi	a1,a1,-9
42010b30:	0105e5b3          	or	a1,a1,a6
42010b34:	ccb72a23          	sw	a1,-812(a4)
42010b38:	cd472583          	lw	a1,-812(a4)
42010b3c:	ffd5f593          	andi	a1,a1,-3
42010b40:	00c5e633          	or	a2,a1,a2
42010b44:	ccc72a23          	sw	a2,-812(a4)
42010b48:	60006637          	lui	a2,0x60006
42010b4c:	09062703          	lw	a4,144(a2) # 60006090 <GPIO+0x2090>
42010b50:	00569593          	slli	a1,a3,0x5
42010b54:	00a69693          	slli	a3,a3,0xa
42010b58:	fdf77713          	andi	a4,a4,-33
42010b5c:	00b76733          	or	a4,a4,a1
42010b60:	08e62823          	sw	a4,144(a2)
42010b64:	60005637          	lui	a2,0x60005
42010b68:	0f062703          	lw	a4,240(a2) # 600050f0 <GPIO+0x10f0>
42010b6c:	bff77713          	andi	a4,a4,-1025
42010b70:	00d76733          	or	a4,a4,a3
42010b74:	0ee62823          	sw	a4,240(a2)
42010b78:	0ff57713          	zext.b	a4,a0
42010b7c:	f0057513          	andi	a0,a0,-256
42010b80:	00e56533          	or	a0,a0,a4
42010b84:	08077713          	andi	a4,a4,128
42010b88:	02070663          	beqz	a4,42010bb4 <rtc_sleep_pu+0x168>
42010b8c:	0ac7a703          	lw	a4,172(a5)
42010b90:	03c76713          	ori	a4,a4,60
42010b94:	0ae7a623          	sw	a4,172(a5)
42010b98:	60026737          	lui	a4,0x60026
42010b9c:	0ac72783          	lw	a5,172(a4) # 600260ac <SYSTIMER+0x30ac>
42010ba0:	10057513          	andi	a0,a0,256
42010ba4:	00050e63          	beqz	a0,42010bc0 <rtc_sleep_pu+0x174>
42010ba8:	0037e793          	ori	a5,a5,3
42010bac:	0af72623          	sw	a5,172(a4)
42010bb0:	00008067          	ret
42010bb4:	0ac7a703          	lw	a4,172(a5)
42010bb8:	fc377713          	andi	a4,a4,-61
42010bbc:	fd9ff06f          	j	42010b94 <rtc_sleep_pu+0x148>
42010bc0:	ffc7f793          	andi	a5,a5,-4
42010bc4:	fe9ff06f          	j	42010bac <rtc_sleep_pu+0x160>

42010bc8 <esp_clk_slowclk_cal_set>:
42010bc8:	600087b7          	lui	a5,0x60008
42010bcc:	04a7aa23          	sw	a0,84(a5) # 60008054 <GPIO+0x4054>
42010bd0:	00008067          	ret

42010bd4 <rtc_clk_bbpll_disable>:
42010bd4:	60008737          	lui	a4,0x60008
42010bd8:	00072783          	lw	a5,0(a4) # 60008000 <GPIO+0x4000>
42010bdc:	5407e793          	ori	a5,a5,1344
42010be0:	00f72023          	sw	a5,0(a4)
42010be4:	3fc837b7          	lui	a5,0x3fc83
42010be8:	c807a423          	sw	zero,-888(a5) # 3fc82c88 <s_cur_pll_freq>
42010bec:	00008067          	ret

42010bf0 <rtc_clk_cpu_freq_to_pll_mhz>:
42010bf0:	ff010113          	addi	sp,sp,-16
42010bf4:	00812423          	sw	s0,8(sp)
42010bf8:	00112623          	sw	ra,12(sp)
42010bfc:	05000793          	li	a5,80
42010c00:	00050413          	mv	s0,a0
42010c04:	04f50263          	beq	a0,a5,42010c48 <rtc_clk_cpu_freq_to_pll_mhz+0x58>
42010c08:	0a000793          	li	a5,160
42010c0c:	00100693          	li	a3,1
42010c10:	02f50e63          	beq	a0,a5,42010c4c <rtc_clk_cpu_freq_to_pll_mhz+0x5c>
42010c14:	3fc857b7          	lui	a5,0x3fc85
42010c18:	0447a783          	lw	a5,68(a5) # 3fc85044 <esp_log_default_level>
42010c1c:	02078463          	beqz	a5,42010c44 <rtc_clk_cpu_freq_to_pll_mhz+0x54>
42010c20:	fe371097          	auipc	ra,0xfe371
42010c24:	e24080e7          	jalr	-476(ra) # 40381a44 <esp_log_early_timestamp>
42010c28:	00050593          	mv	a1,a0
42010c2c:	3c000637          	lui	a2,0x3c000
42010c30:	3c000537          	lui	a0,0x3c000
42010c34:	0ac60613          	addi	a2,a2,172 # 3c0000ac <GPIO_PIN_MUX_REG+0x58>
42010c38:	0b450513          	addi	a0,a0,180 # 3c0000b4 <GPIO_PIN_MUX_REG+0x60>
42010c3c:	fdfef097          	auipc	ra,0xfdfef
42010c40:	404080e7          	jalr	1028(ra) # 40000040 <esp_rom_printf>
42010c44:	5fc020ef          	jal	ra,42013240 <abort>
42010c48:	00000693          	li	a3,0
42010c4c:	600c07b7          	lui	a5,0x600c0
42010c50:	0087a703          	lw	a4,8(a5) # 600c0008 <USB_SERIAL_JTAG+0x7d008>
42010c54:	00040513          	mv	a0,s0
42010c58:	ffc77713          	andi	a4,a4,-4
42010c5c:	00d76733          	or	a4,a4,a3
42010c60:	00e7a423          	sw	a4,8(a5)
42010c64:	0587a703          	lw	a4,88(a5)
42010c68:	fffff6b7          	lui	a3,0xfffff
42010c6c:	3ff68693          	addi	a3,a3,1023 # fffff3ff <CONFIG_SYSTEM_WORKQUEUE_PRIORITY+0xfffff400>
42010c70:	c0077713          	andi	a4,a4,-1024
42010c74:	04e7ac23          	sw	a4,88(a5)
42010c78:	0587a703          	lw	a4,88(a5)
42010c7c:	00d77733          	and	a4,a4,a3
42010c80:	40076713          	ori	a4,a4,1024
42010c84:	04e7ac23          	sw	a4,88(a5)
42010c88:	4c4b57b7          	lui	a5,0x4c4b5
42010c8c:	60008737          	lui	a4,0x60008
42010c90:	c4b78793          	addi	a5,a5,-949 # 4c4b4c4b <_etext+0xa4a0507>
42010c94:	0af72e23          	sw	a5,188(a4) # 600080bc <GPIO+0x40bc>
42010c98:	00812403          	lw	s0,8(sp)
42010c9c:	00c12083          	lw	ra,12(sp)
42010ca0:	01010113          	addi	sp,sp,16
42010ca4:	fdff0317          	auipc	t1,0xfdff0
42010ca8:	8e430067          	jr	-1820(t1) # 40000588 <ets_update_cpu_frequency>

42010cac <rtc_clk_32k_enable_internal>:
42010cac:	600087b7          	lui	a5,0x60008
42010cb0:	0607a683          	lw	a3,96(a5) # 60008060 <GPIO+0x4060>
42010cb4:	01151713          	slli	a4,a0,0x11
42010cb8:	000e0637          	lui	a2,0xe0
42010cbc:	00c77733          	and	a4,a4,a2
42010cc0:	fff20637          	lui	a2,0xfff20
42010cc4:	fff60613          	addi	a2,a2,-1 # fff1ffff <CONFIG_SYSTEM_WORKQUEUE_PRIORITY+0xfff20000>
42010cc8:	00c6f6b3          	and	a3,a3,a2
42010ccc:	00d76733          	or	a4,a4,a3
42010cd0:	06e7a023          	sw	a4,96(a5)
42010cd4:	0607a683          	lw	a3,96(a5)
42010cd8:	00655713          	srli	a4,a0,0x6
42010cdc:	ffff2637          	lui	a2,0xffff2
42010ce0:	fff60613          	addi	a2,a2,-1 # ffff1fff <CONFIG_SYSTEM_WORKQUEUE_PRIORITY+0xffff2000>
42010ce4:	00777713          	andi	a4,a4,7
42010ce8:	00c6f6b3          	and	a3,a3,a2
42010cec:	00d71713          	slli	a4,a4,0xd
42010cf0:	00d76733          	or	a4,a4,a3
42010cf4:	06e7a023          	sw	a4,96(a5)
42010cf8:	0607a683          	lw	a3,96(a5)
42010cfc:	00955713          	srli	a4,a0,0x9
42010d00:	ffffe637          	lui	a2,0xffffe
42010d04:	00777713          	andi	a4,a4,7
42010d08:	3ff60613          	addi	a2,a2,1023 # ffffe3ff <CONFIG_SYSTEM_WORKQUEUE_PRIORITY+0xffffe400>
42010d0c:	00c6f6b3          	and	a3,a3,a2
42010d10:	00a71713          	slli	a4,a4,0xa
42010d14:	00d76733          	or	a4,a4,a3
42010d18:	06e7a023          	sw	a4,96(a5)
42010d1c:	0607a703          	lw	a4,96(a5)
42010d20:	00355513          	srli	a0,a0,0x3
42010d24:	20057513          	andi	a0,a0,512
42010d28:	dff77713          	andi	a4,a4,-513
42010d2c:	00e56533          	or	a0,a0,a4
42010d30:	06a7a023          	sw	a0,96(a5)
42010d34:	0607a703          	lw	a4,96(a5)
42010d38:	000106b7          	lui	a3,0x10
42010d3c:	00d76733          	or	a4,a4,a3
42010d40:	06e7a023          	sw	a4,96(a5)
42010d44:	00008067          	ret

42010d48 <rtc_clk_32k_enable.part.0>:
42010d48:	00001537          	lui	a0,0x1
42010d4c:	6c350513          	addi	a0,a0,1731 # 16c3 <CONFIG_HEAP_MEM_POOL_SIZE+0x6c3>
42010d50:	f5dff06f          	j	42010cac <rtc_clk_32k_enable_internal>

42010d54 <rtc_clk_32k_enable>:
42010d54:	00050463          	beqz	a0,42010d5c <rtc_clk_32k_enable+0x8>
42010d58:	ff1ff06f          	j	42010d48 <rtc_clk_32k_enable.part.0>
42010d5c:	600087b7          	lui	a5,0x60008
42010d60:	0607a703          	lw	a4,96(a5) # 60008060 <GPIO+0x4060>
42010d64:	ffff06b7          	lui	a3,0xffff0
42010d68:	fff68693          	addi	a3,a3,-1 # fffeffff <CONFIG_SYSTEM_WORKQUEUE_PRIORITY+0xffff0000>
42010d6c:	08076713          	ori	a4,a4,128
42010d70:	06e7a023          	sw	a4,96(a5)
42010d74:	0607a703          	lw	a4,96(a5)
42010d78:	00d77733          	and	a4,a4,a3
42010d7c:	06e7a023          	sw	a4,96(a5)
42010d80:	00008067          	ret

42010d84 <rtc_clk_8m_enable>:
42010d84:	ff010113          	addi	sp,sp,-16
42010d88:	00812423          	sw	s0,8(sp)
42010d8c:	00112623          	sw	ra,12(sp)
42010d90:	60008737          	lui	a4,0x60008
42010d94:	07072783          	lw	a5,112(a4) # 60008070 <GPIO+0x4070>
42010d98:	00058413          	mv	s0,a1
42010d9c:	04050a63          	beqz	a0,42010df0 <rtc_clk_8m_enable+0x6c>
42010da0:	fbf7f793          	andi	a5,a5,-65
42010da4:	06f72823          	sw	a5,112(a4)
42010da8:	01c72783          	lw	a5,28(a4)
42010dac:	ffffc6b7          	lui	a3,0xffffc
42010db0:	03f68693          	addi	a3,a3,63 # ffffc03f <CONFIG_SYSTEM_WORKQUEUE_PRIORITY+0xffffc040>
42010db4:	00d7f7b3          	and	a5,a5,a3
42010db8:	1407e793          	ori	a5,a5,320
42010dbc:	00f72e23          	sw	a5,28(a4)
42010dc0:	03200513          	li	a0,50
42010dc4:	fdfef097          	auipc	ra,0xfdfef
42010dc8:	28c080e7          	jalr	652(ra) # 40000050 <esp_rom_delay_us>
42010dcc:	60008737          	lui	a4,0x60008
42010dd0:	07072783          	lw	a5,112(a4) # 60008070 <GPIO+0x4070>
42010dd4:	04040063          	beqz	s0,42010e14 <rtc_clk_8m_enable+0x90>
42010dd8:	f7f7f793          	andi	a5,a5,-129
42010ddc:	06f72823          	sw	a5,112(a4)
42010de0:	00c12083          	lw	ra,12(sp)
42010de4:	00812403          	lw	s0,8(sp)
42010de8:	01010113          	addi	sp,sp,16
42010dec:	00008067          	ret
42010df0:	0407e793          	ori	a5,a5,64
42010df4:	06f72823          	sw	a5,112(a4)
42010df8:	01c72783          	lw	a5,28(a4)
42010dfc:	ffffc6b7          	lui	a3,0xffffc
42010e00:	03f68693          	addi	a3,a3,63 # ffffc03f <CONFIG_SYSTEM_WORKQUEUE_PRIORITY+0xffffc040>
42010e04:	00d7f7b3          	and	a5,a5,a3
42010e08:	5007e793          	ori	a5,a5,1280
42010e0c:	00f72e23          	sw	a5,28(a4)
42010e10:	fbdff06f          	j	42010dcc <rtc_clk_8m_enable+0x48>
42010e14:	0807e793          	ori	a5,a5,128
42010e18:	fc5ff06f          	j	42010ddc <rtc_clk_8m_enable+0x58>

42010e1c <rtc_clk_slow_freq_set>:
42010e1c:	600087b7          	lui	a5,0x60008
42010e20:	0707a703          	lw	a4,112(a5) # 60008070 <GPIO+0x4070>
42010e24:	01e51693          	slli	a3,a0,0x1e
42010e28:	00271713          	slli	a4,a4,0x2
42010e2c:	00275713          	srli	a4,a4,0x2
42010e30:	00d76733          	or	a4,a4,a3
42010e34:	06e7a823          	sw	a4,112(a5)
42010e38:	0707a703          	lw	a4,112(a5)
42010e3c:	00100693          	li	a3,1
42010e40:	eff77713          	andi	a4,a4,-257
42010e44:	02d51c63          	bne	a0,a3,42010e7c <rtc_clk_slow_freq_set+0x60>
42010e48:	10076713          	ori	a4,a4,256
42010e4c:	06e7a823          	sw	a4,112(a5)
42010e50:	0707a783          	lw	a5,112(a5)
42010e54:	fc000737          	lui	a4,0xfc000
42010e58:	fff70713          	addi	a4,a4,-1 # fbffffff <CONFIG_SYSTEM_WORKQUEUE_PRIORITY+0xfc000000>
42010e5c:	00e7f7b3          	and	a5,a5,a4
42010e60:	00000513          	li	a0,0
42010e64:	00f56533          	or	a0,a0,a5
42010e68:	600087b7          	lui	a5,0x60008
42010e6c:	06a7a823          	sw	a0,112(a5) # 60008070 <GPIO+0x4070>
42010e70:	12c00513          	li	a0,300
42010e74:	fdfef317          	auipc	t1,0xfdfef
42010e78:	1dc30067          	jr	476(t1) # 40000050 <esp_rom_delay_us>
42010e7c:	06e7a823          	sw	a4,112(a5)
42010e80:	0707a783          	lw	a5,112(a5)
42010e84:	fc000737          	lui	a4,0xfc000
42010e88:	ffe50513          	addi	a0,a0,-2
42010e8c:	fff70713          	addi	a4,a4,-1 # fbffffff <CONFIG_SYSTEM_WORKQUEUE_PRIORITY+0xfc000000>
42010e90:	00153513          	seqz	a0,a0
42010e94:	00e7f7b3          	and	a5,a5,a4
42010e98:	01a51513          	slli	a0,a0,0x1a
42010e9c:	fc9ff06f          	j	42010e64 <rtc_clk_slow_freq_set+0x48>

42010ea0 <rtc_clk_slow_freq_get>:
42010ea0:	600087b7          	lui	a5,0x60008
42010ea4:	0707a503          	lw	a0,112(a5) # 60008070 <GPIO+0x4070>
42010ea8:	01e55513          	srli	a0,a0,0x1e
42010eac:	00008067          	ret

42010eb0 <rtc_clk_fast_freq_set>:
42010eb0:	600086b7          	lui	a3,0x60008
42010eb4:	0706a783          	lw	a5,112(a3) # 60008070 <GPIO+0x4070>
42010eb8:	20000737          	lui	a4,0x20000
42010ebc:	01d51513          	slli	a0,a0,0x1d
42010ec0:	00e57533          	and	a0,a0,a4
42010ec4:	e0000737          	lui	a4,0xe0000
42010ec8:	fff70713          	addi	a4,a4,-1 # dfffffff <CONFIG_SYSTEM_WORKQUEUE_PRIORITY+0xe0000000>
42010ecc:	00e7f7b3          	and	a5,a5,a4
42010ed0:	00f56533          	or	a0,a0,a5
42010ed4:	06a6a823          	sw	a0,112(a3)
42010ed8:	00300513          	li	a0,3
42010edc:	fdfef317          	auipc	t1,0xfdfef
42010ee0:	17430067          	jr	372(t1) # 40000050 <esp_rom_delay_us>

42010ee4 <rtc_clk_fast_freq_get>:
42010ee4:	600087b7          	lui	a5,0x60008
42010ee8:	0707a503          	lw	a0,112(a5) # 60008070 <GPIO+0x4070>
42010eec:	01d55513          	srli	a0,a0,0x1d
42010ef0:	00157513          	andi	a0,a0,1
42010ef4:	00008067          	ret

42010ef8 <rtc_clk_bbpll_configure>:
42010ef8:	fe010113          	addi	sp,sp,-32
42010efc:	01212823          	sw	s2,16(sp)
42010f00:	6000e7b7          	lui	a5,0x6000e
42010f04:	00112e23          	sw	ra,28(sp)
42010f08:	00812c23          	sw	s0,24(sp)
42010f0c:	00912a23          	sw	s1,20(sp)
42010f10:	01312623          	sw	s3,12(sp)
42010f14:	01412423          	sw	s4,8(sp)
42010f18:	01512223          	sw	s5,4(sp)
42010f1c:	0407a703          	lw	a4,64(a5) # 6000e040 <GPIO+0xa040>
42010f20:	00058913          	mv	s2,a1
42010f24:	ffb77713          	andi	a4,a4,-5
42010f28:	04e7a023          	sw	a4,64(a5)
42010f2c:	0407a703          	lw	a4,64(a5)
42010f30:	00876713          	ori	a4,a4,8
42010f34:	04e7a023          	sw	a4,64(a5)
42010f38:	1e000793          	li	a5,480
42010f3c:	600c0737          	lui	a4,0x600c0
42010f40:	16f59863          	bne	a1,a5,420110b0 <rtc_clk_bbpll_configure+0x1b8>
42010f44:	00872783          	lw	a5,8(a4) # 600c0008 <USB_SERIAL_JTAG+0x7d008>
42010f48:	0047e793          	ori	a5,a5,4
42010f4c:	00f72423          	sw	a5,8(a4)
42010f50:	02000793          	li	a5,32
42010f54:	14f50463          	beq	a0,a5,4201109c <rtc_clk_bbpll_configure+0x1a4>
42010f58:	00300a13          	li	s4,3
42010f5c:	00500413          	li	s0,5
42010f60:	00800993          	li	s3,8
42010f64:	00000493          	li	s1,0
42010f68:	06b00693          	li	a3,107
42010f6c:	00400613          	li	a2,4
42010f70:	00000593          	li	a1,0
42010f74:	06600513          	li	a0,102
42010f78:	fe36f097          	auipc	ra,0xfe36f
42010f7c:	498080e7          	jalr	1176(ra) # 40380410 <regi2c_ctrl_write_reg>
42010f80:	00048a93          	mv	s5,s1
42010f84:	00441693          	slli	a3,s0,0x4
42010f88:	00d4e6b3          	or	a3,s1,a3
42010f8c:	00200613          	li	a2,2
42010f90:	00000593          	li	a1,0
42010f94:	06600513          	li	a0,102
42010f98:	fe36f097          	auipc	ra,0xfe36f
42010f9c:	478080e7          	jalr	1144(ra) # 40380410 <regi2c_ctrl_write_reg>
42010fa0:	00098693          	mv	a3,s3
42010fa4:	00300613          	li	a2,3
42010fa8:	00000593          	li	a1,0
42010fac:	06600513          	li	a0,102
42010fb0:	fe36f097          	auipc	ra,0xfe36f
42010fb4:	460080e7          	jalr	1120(ra) # 40380410 <regi2c_ctrl_write_reg>
42010fb8:	000a8793          	mv	a5,s5
42010fbc:	00000713          	li	a4,0
42010fc0:	00200693          	li	a3,2
42010fc4:	00500613          	li	a2,5
42010fc8:	00000593          	li	a1,0
42010fcc:	06600513          	li	a0,102
42010fd0:	fe36f097          	auipc	ra,0xfe36f
42010fd4:	47c080e7          	jalr	1148(ra) # 4038044c <regi2c_ctrl_write_reg_mask>
42010fd8:	000a8793          	mv	a5,s5
42010fdc:	00400713          	li	a4,4
42010fe0:	00600693          	li	a3,6
42010fe4:	00500613          	li	a2,5
42010fe8:	00000593          	li	a1,0
42010fec:	06600513          	li	a0,102
42010ff0:	fe36f097          	auipc	ra,0xfe36f
42010ff4:	45c080e7          	jalr	1116(ra) # 4038044c <regi2c_ctrl_write_reg_mask>
42010ff8:	090a6693          	ori	a3,s4,144
42010ffc:	00600613          	li	a2,6
42011000:	00000593          	li	a1,0
42011004:	06600513          	li	a0,102
42011008:	fe36f097          	auipc	ra,0xfe36f
4201100c:	408080e7          	jalr	1032(ra) # 40380410 <regi2c_ctrl_write_reg>
42011010:	00200793          	li	a5,2
42011014:	00000713          	li	a4,0
42011018:	00100693          	li	a3,1
4201101c:	00900613          	li	a2,9
42011020:	00000593          	li	a1,0
42011024:	06600513          	li	a0,102
42011028:	fe36f097          	auipc	ra,0xfe36f
4201102c:	424080e7          	jalr	1060(ra) # 4038044c <regi2c_ctrl_write_reg_mask>
42011030:	00200793          	li	a5,2
42011034:	00400713          	li	a4,4
42011038:	00500693          	li	a3,5
4201103c:	00600613          	li	a2,6
42011040:	00000593          	li	a1,0
42011044:	06600513          	li	a0,102
42011048:	fe36f097          	auipc	ra,0xfe36f
4201104c:	404080e7          	jalr	1028(ra) # 4038044c <regi2c_ctrl_write_reg_mask>
42011050:	00100793          	li	a5,1
42011054:	00600713          	li	a4,6
42011058:	00700693          	li	a3,7
4201105c:	00600613          	li	a2,6
42011060:	00000593          	li	a1,0
42011064:	06600513          	li	a0,102
42011068:	fe36f097          	auipc	ra,0xfe36f
4201106c:	3e4080e7          	jalr	996(ra) # 4038044c <regi2c_ctrl_write_reg_mask>
42011070:	01c12083          	lw	ra,28(sp)
42011074:	01812403          	lw	s0,24(sp)
42011078:	3fc837b7          	lui	a5,0x3fc83
4201107c:	c927a423          	sw	s2,-888(a5) # 3fc82c88 <s_cur_pll_freq>
42011080:	01412483          	lw	s1,20(sp)
42011084:	01012903          	lw	s2,16(sp)
42011088:	00c12983          	lw	s3,12(sp)
4201108c:	00812a03          	lw	s4,8(sp)
42011090:	00412a83          	lw	s5,4(sp)
42011094:	02010113          	addi	sp,sp,32
42011098:	00008067          	ret
4201109c:	00000a13          	li	s4,0
420110a0:	00400413          	li	s0,4
420110a4:	01a00993          	li	s3,26
420110a8:	00100493          	li	s1,1
420110ac:	ebdff06f          	j	42010f68 <rtc_clk_bbpll_configure+0x70>
420110b0:	00872783          	lw	a5,8(a4)
420110b4:	ffb7f793          	andi	a5,a5,-5
420110b8:	00f72423          	sw	a5,8(a4)
420110bc:	02000793          	li	a5,32
420110c0:	02f50a63          	beq	a0,a5,420110f4 <rtc_clk_bbpll_configure+0x1fc>
420110c4:	00400993          	li	s3,4
420110c8:	00000493          	li	s1,0
420110cc:	06900693          	li	a3,105
420110d0:	00400613          	li	a2,4
420110d4:	00000593          	li	a1,0
420110d8:	06600513          	li	a0,102
420110dc:	fe36f097          	auipc	ra,0xfe36f
420110e0:	334080e7          	jalr	820(ra) # 40380410 <regi2c_ctrl_write_reg>
420110e4:	00300a13          	li	s4,3
420110e8:	00500413          	li	s0,5
420110ec:	00000a93          	li	s5,0
420110f0:	e95ff06f          	j	42010f84 <rtc_clk_bbpll_configure+0x8c>
420110f4:	00600993          	li	s3,6
420110f8:	00100493          	li	s1,1
420110fc:	fd1ff06f          	j	420110cc <rtc_clk_bbpll_configure+0x1d4>

42011100 <rtc_clk_xtal_freq_get>:
42011100:	600087b7          	lui	a5,0x60008
42011104:	0b87a683          	lw	a3,184(a5) # 600080b8 <GPIO+0x40b8>
42011108:	01069513          	slli	a0,a3,0x10
4201110c:	01055513          	srli	a0,a0,0x10
42011110:	0106d793          	srli	a5,a3,0x10
42011114:	00f51863          	bne	a0,a5,42011124 <rtc_clk_xtal_freq_get+0x24>
42011118:	fff68793          	addi	a5,a3,-1
4201111c:	ffd00713          	li	a4,-3
42011120:	04f77c63          	bgeu	a4,a5,42011178 <rtc_clk_xtal_freq_get+0x78>
42011124:	3fc857b7          	lui	a5,0x3fc85
42011128:	0447a703          	lw	a4,68(a5) # 3fc85044 <esp_log_default_level>
4201112c:	fe010113          	addi	sp,sp,-32
42011130:	00112e23          	sw	ra,28(sp)
42011134:	00d12623          	sw	a3,12(sp)
42011138:	00100793          	li	a5,1
4201113c:	02e7f663          	bgeu	a5,a4,42011168 <rtc_clk_xtal_freq_get+0x68>
42011140:	fe371097          	auipc	ra,0xfe371
42011144:	904080e7          	jalr	-1788(ra) # 40381a44 <esp_log_early_timestamp>
42011148:	00c12683          	lw	a3,12(sp)
4201114c:	00050593          	mv	a1,a0
42011150:	3c000637          	lui	a2,0x3c000
42011154:	3c000537          	lui	a0,0x3c000
42011158:	0ac60613          	addi	a2,a2,172 # 3c0000ac <GPIO_PIN_MUX_REG+0x58>
4201115c:	0d450513          	addi	a0,a0,212 # 3c0000d4 <GPIO_PIN_MUX_REG+0x80>
42011160:	fdfef097          	auipc	ra,0xfdfef
42011164:	ee0080e7          	jalr	-288(ra) # 40000040 <esp_rom_printf>
42011168:	01c12083          	lw	ra,28(sp)
4201116c:	02800513          	li	a0,40
42011170:	02010113          	addi	sp,sp,32
42011174:	00008067          	ret
42011178:	00008067          	ret

4201117c <rtc_clk_cpu_freq_mhz_to_config>:
4201117c:	ff010113          	addi	sp,sp,-16
42011180:	00812423          	sw	s0,8(sp)
42011184:	00912223          	sw	s1,4(sp)
42011188:	00112623          	sw	ra,12(sp)
4201118c:	00050413          	mv	s0,a0
42011190:	00058493          	mv	s1,a1
42011194:	f6dff0ef          	jal	ra,42011100 <rtc_clk_xtal_freq_get>
42011198:	02856e63          	bltu	a0,s0,420111d4 <rtc_clk_cpu_freq_mhz_to_config+0x58>
4201119c:	02855733          	divu	a4,a0,s0
420111a0:	00050793          	mv	a5,a0
420111a4:	00175693          	srli	a3,a4,0x1
420111a8:	00a686b3          	add	a3,a3,a0
420111ac:	02e6d6b3          	divu	a3,a3,a4
420111b0:	00000513          	li	a0,0
420111b4:	02d41c63          	bne	s0,a3,420111ec <rtc_clk_cpu_freq_mhz_to_config+0x70>
420111b8:	00000693          	li	a3,0
420111bc:	00d4a023          	sw	a3,0(s1)
420111c0:	00f4a223          	sw	a5,4(s1)
420111c4:	00e4a423          	sw	a4,8(s1)
420111c8:	0084a623          	sw	s0,12(s1)
420111cc:	00100513          	li	a0,1
420111d0:	01c0006f          	j	420111ec <rtc_clk_cpu_freq_mhz_to_config+0x70>
420111d4:	05000793          	li	a5,80
420111d8:	02f40463          	beq	s0,a5,42011200 <rtc_clk_cpu_freq_mhz_to_config+0x84>
420111dc:	0a000793          	li	a5,160
420111e0:	00000513          	li	a0,0
420111e4:	00300713          	li	a4,3
420111e8:	00f40e63          	beq	s0,a5,42011204 <rtc_clk_cpu_freq_mhz_to_config+0x88>
420111ec:	00c12083          	lw	ra,12(sp)
420111f0:	00812403          	lw	s0,8(sp)
420111f4:	00412483          	lw	s1,4(sp)
420111f8:	01010113          	addi	sp,sp,16
420111fc:	00008067          	ret
42011200:	00600713          	li	a4,6
42011204:	00100693          	li	a3,1
42011208:	1e000793          	li	a5,480
4201120c:	fb1ff06f          	j	420111bc <rtc_clk_cpu_freq_mhz_to_config+0x40>

42011210 <rtc_clk_cpu_freq_get_config>:
42011210:	fe010113          	addi	sp,sp,-32
42011214:	01312623          	sw	s3,12(sp)
42011218:	00112e23          	sw	ra,28(sp)
4201121c:	00812c23          	sw	s0,24(sp)
42011220:	00912a23          	sw	s1,20(sp)
42011224:	01212823          	sw	s2,16(sp)
42011228:	600c07b7          	lui	a5,0x600c0
4201122c:	0587a483          	lw	s1,88(a5) # 600c0058 <USB_SERIAL_JTAG+0x7d058>
42011230:	00100713          	li	a4,1
42011234:	00050993          	mv	s3,a0
42011238:	00a4d493          	srli	s1,s1,0xa
4201123c:	0034f493          	andi	s1,s1,3
42011240:	04e48a63          	beq	s1,a4,42011294 <rtc_clk_cpu_freq_get_config+0x84>
42011244:	00200713          	li	a4,2
42011248:	10e48c63          	beq	s1,a4,42011360 <rtc_clk_cpu_freq_get_config+0x150>
4201124c:	0c049663          	bnez	s1,42011318 <rtc_clk_cpu_freq_get_config+0x108>
42011250:	0587a403          	lw	s0,88(a5)
42011254:	eadff0ef          	jal	ra,42011100 <rtc_clk_xtal_freq_get>
42011258:	00050913          	mv	s2,a0
4201125c:	3ff47413          	andi	s0,s0,1023
42011260:	00140413          	addi	s0,s0,1
42011264:	028557b3          	divu	a5,a0,s0
42011268:	0099a023          	sw	s1,0(s3)
4201126c:	0129a223          	sw	s2,4(s3)
42011270:	0089a423          	sw	s0,8(s3)
42011274:	00f9a623          	sw	a5,12(s3)
42011278:	01c12083          	lw	ra,28(sp)
4201127c:	01812403          	lw	s0,24(sp)
42011280:	01412483          	lw	s1,20(sp)
42011284:	01012903          	lw	s2,16(sp)
42011288:	00c12983          	lw	s3,12(sp)
4201128c:	02010113          	addi	sp,sp,32
42011290:	00008067          	ret
42011294:	0087a703          	lw	a4,8(a5)
42011298:	0087a783          	lw	a5,8(a5)
4201129c:	00377713          	andi	a4,a4,3
420112a0:	0027d793          	srli	a5,a5,0x2
420112a4:	0017f793          	andi	a5,a5,1
420112a8:	02078063          	beqz	a5,420112c8 <rtc_clk_cpu_freq_get_config+0xb8>
420112ac:	1e000913          	li	s2,480
420112b0:	02071063          	bnez	a4,420112d0 <rtc_clk_cpu_freq_get_config+0xc0>
420112b4:	00078493          	mv	s1,a5
420112b8:	00600413          	li	s0,6
420112bc:	05000793          	li	a5,80
420112c0:	1e000913          	li	s2,480
420112c4:	fa5ff06f          	j	42011268 <rtc_clk_cpu_freq_get_config+0x58>
420112c8:	0a070463          	beqz	a4,42011370 <rtc_clk_cpu_freq_get_config+0x160>
420112cc:	14000913          	li	s2,320
420112d0:	00100793          	li	a5,1
420112d4:	0af70663          	beq	a4,a5,42011380 <rtc_clk_cpu_freq_get_config+0x170>
420112d8:	3fc857b7          	lui	a5,0x3fc85
420112dc:	0447a783          	lw	a5,68(a5) # 3fc85044 <esp_log_default_level>
420112e0:	02078463          	beqz	a5,42011308 <rtc_clk_cpu_freq_get_config+0xf8>
420112e4:	fe370097          	auipc	ra,0xfe370
420112e8:	760080e7          	jalr	1888(ra) # 40381a44 <esp_log_early_timestamp>
420112ec:	00050593          	mv	a1,a0
420112f0:	3c000637          	lui	a2,0x3c000
420112f4:	3c000537          	lui	a0,0x3c000
420112f8:	0ac60613          	addi	a2,a2,172 # 3c0000ac <GPIO_PIN_MUX_REG+0x58>
420112fc:	10850513          	addi	a0,a0,264 # 3c000108 <GPIO_PIN_MUX_REG+0xb4>
42011300:	fdfef097          	auipc	ra,0xfdfef
42011304:	d40080e7          	jalr	-704(ra) # 40000040 <esp_rom_printf>
42011308:	739010ef          	jal	ra,42013240 <abort>
4201130c:	00000793          	li	a5,0
42011310:	00000413          	li	s0,0
42011314:	f55ff06f          	j	42011268 <rtc_clk_cpu_freq_get_config+0x58>
42011318:	3fc857b7          	lui	a5,0x3fc85
4201131c:	0447a783          	lw	a5,68(a5) # 3fc85044 <esp_log_default_level>
42011320:	02078463          	beqz	a5,42011348 <rtc_clk_cpu_freq_get_config+0x138>
42011324:	fe370097          	auipc	ra,0xfe370
42011328:	720080e7          	jalr	1824(ra) # 40381a44 <esp_log_early_timestamp>
4201132c:	00050593          	mv	a1,a0
42011330:	3c000637          	lui	a2,0x3c000
42011334:	3c000537          	lui	a0,0x3c000
42011338:	0ac60613          	addi	a2,a2,172 # 3c0000ac <GPIO_PIN_MUX_REG+0x58>
4201133c:	10850513          	addi	a0,a0,264 # 3c000108 <GPIO_PIN_MUX_REG+0xb4>
42011340:	fdfef097          	auipc	ra,0xfdfef
42011344:	d00080e7          	jalr	-768(ra) # 40000040 <esp_rom_printf>
42011348:	6f9010ef          	jal	ra,42013240 <abort>
4201134c:	00000793          	li	a5,0
42011350:	00000413          	li	s0,0
42011354:	00000913          	li	s2,0
42011358:	00000493          	li	s1,0
4201135c:	f0dff06f          	j	42011268 <rtc_clk_cpu_freq_get_config+0x58>
42011360:	00800793          	li	a5,8
42011364:	00100413          	li	s0,1
42011368:	00800913          	li	s2,8
4201136c:	efdff06f          	j	42011268 <rtc_clk_cpu_freq_get_config+0x58>
42011370:	05000793          	li	a5,80
42011374:	00400413          	li	s0,4
42011378:	14000913          	li	s2,320
4201137c:	eedff06f          	j	42011268 <rtc_clk_cpu_freq_get_config+0x58>
42011380:	00100493          	li	s1,1
42011384:	0a000793          	li	a5,160
42011388:	00300413          	li	s0,3
4201138c:	eddff06f          	j	42011268 <rtc_clk_cpu_freq_get_config+0x58>

42011390 <rtc_clk_xtal_freq_update>:
42011390:	01051793          	slli	a5,a0,0x10
42011394:	0107d793          	srli	a5,a5,0x10
42011398:	01051513          	slli	a0,a0,0x10
4201139c:	00a7e7b3          	or	a5,a5,a0
420113a0:	60008737          	lui	a4,0x60008
420113a4:	0af72c23          	sw	a5,184(a4) # 600080b8 <GPIO+0x40b8>
420113a8:	00008067          	ret

420113ac <rtc_clk_apb_freq_update>:
420113ac:	00c55513          	srli	a0,a0,0xc
420113b0:	01051793          	slli	a5,a0,0x10
420113b4:	0107d793          	srli	a5,a5,0x10
420113b8:	01051513          	slli	a0,a0,0x10
420113bc:	00a7e7b3          	or	a5,a5,a0
420113c0:	60008737          	lui	a4,0x60008
420113c4:	0af72e23          	sw	a5,188(a4) # 600080bc <GPIO+0x40bc>
420113c8:	00008067          	ret

420113cc <rtc_clk_cpu_freq_to_xtal>:
420113cc:	ff010113          	addi	sp,sp,-16
420113d0:	00812423          	sw	s0,8(sp)
420113d4:	00912223          	sw	s1,4(sp)
420113d8:	00112623          	sw	ra,12(sp)
420113dc:	00050493          	mv	s1,a0
420113e0:	00058413          	mv	s0,a1
420113e4:	fdfef097          	auipc	ra,0xfdfef
420113e8:	1a4080e7          	jalr	420(ra) # 40000588 <ets_update_cpu_frequency>
420113ec:	600c07b7          	lui	a5,0x600c0
420113f0:	0587a703          	lw	a4,88(a5) # 600c0058 <USB_SERIAL_JTAG+0x7d058>
420113f4:	fff40413          	addi	s0,s0,-1
420113f8:	3ff47413          	andi	s0,s0,1023
420113fc:	c0077713          	andi	a4,a4,-1024
42011400:	04e7ac23          	sw	a4,88(a5)
42011404:	0587a703          	lw	a4,88(a5)
42011408:	fffff6b7          	lui	a3,0xfffff
4201140c:	3ff68693          	addi	a3,a3,1023 # fffff3ff <CONFIG_SYSTEM_WORKQUEUE_PRIORITY+0xfffff400>
42011410:	c0077713          	andi	a4,a4,-1024
42011414:	00e46433          	or	s0,s0,a4
42011418:	0487ac23          	sw	s0,88(a5)
4201141c:	0587a703          	lw	a4,88(a5)
42011420:	00d77733          	and	a4,a4,a3
42011424:	04e7ac23          	sw	a4,88(a5)
42011428:	000f47b7          	lui	a5,0xf4
4201142c:	24078793          	addi	a5,a5,576 # f4240 <_image_irom_size+0xefb1c>
42011430:	02f48533          	mul	a0,s1,a5
42011434:	00812403          	lw	s0,8(sp)
42011438:	00c12083          	lw	ra,12(sp)
4201143c:	00412483          	lw	s1,4(sp)
42011440:	01010113          	addi	sp,sp,16
42011444:	f69ff06f          	j	420113ac <rtc_clk_apb_freq_update>

42011448 <rtc_clk_cpu_freq_set_config>:
42011448:	fe010113          	addi	sp,sp,-32
4201144c:	00912a23          	sw	s1,20(sp)
42011450:	01212823          	sw	s2,16(sp)
42011454:	00112e23          	sw	ra,28(sp)
42011458:	00812c23          	sw	s0,24(sp)
4201145c:	01312623          	sw	s3,12(sp)
42011460:	600c0937          	lui	s2,0x600c0
42011464:	05892403          	lw	s0,88(s2) # 600c0058 <USB_SERIAL_JTAG+0x7d058>
42011468:	00052783          	lw	a5,0(a0)
4201146c:	00050493          	mv	s1,a0
42011470:	00a45413          	srli	s0,s0,0xa
42011474:	00347413          	andi	s0,s0,3
42011478:	02079a63          	bnez	a5,420114ac <rtc_clk_cpu_freq_set_config+0x64>
4201147c:	00852583          	lw	a1,8(a0)
42011480:	00c52503          	lw	a0,12(a0)
42011484:	f49ff0ef          	jal	ra,420113cc <rtc_clk_cpu_freq_to_xtal>
42011488:	00100793          	li	a5,1
4201148c:	0af41e63          	bne	s0,a5,42011548 <rtc_clk_cpu_freq_set_config+0x100>
42011490:	01812403          	lw	s0,24(sp)
42011494:	01c12083          	lw	ra,28(sp)
42011498:	01412483          	lw	s1,20(sp)
4201149c:	01012903          	lw	s2,16(sp)
420114a0:	00c12983          	lw	s3,12(sp)
420114a4:	02010113          	addi	sp,sp,32
420114a8:	f2cff06f          	j	42010bd4 <rtc_clk_bbpll_disable>
420114ac:	00100993          	li	s3,1
420114b0:	05379263          	bne	a5,s3,420114f4 <rtc_clk_cpu_freq_set_config+0xac>
420114b4:	02f40063          	beq	s0,a5,420114d4 <rtc_clk_cpu_freq_set_config+0x8c>
420114b8:	60008737          	lui	a4,0x60008
420114bc:	00072783          	lw	a5,0(a4) # 60008000 <GPIO+0x4000>
420114c0:	abf7f793          	andi	a5,a5,-1345
420114c4:	00f72023          	sw	a5,0(a4)
420114c8:	c39ff0ef          	jal	ra,42011100 <rtc_clk_xtal_freq_get>
420114cc:	0044a583          	lw	a1,4(s1)
420114d0:	a29ff0ef          	jal	ra,42010ef8 <rtc_clk_bbpll_configure>
420114d4:	01812403          	lw	s0,24(sp)
420114d8:	00c4a503          	lw	a0,12(s1)
420114dc:	01c12083          	lw	ra,28(sp)
420114e0:	01412483          	lw	s1,20(sp)
420114e4:	01012903          	lw	s2,16(sp)
420114e8:	00c12983          	lw	s3,12(sp)
420114ec:	02010113          	addi	sp,sp,32
420114f0:	f00ff06f          	j	42010bf0 <rtc_clk_cpu_freq_to_pll_mhz>
420114f4:	00200713          	li	a4,2
420114f8:	04e79863          	bne	a5,a4,42011548 <rtc_clk_cpu_freq_set_config+0x100>
420114fc:	00800513          	li	a0,8
42011500:	fdfef097          	auipc	ra,0xfdfef
42011504:	088080e7          	jalr	136(ra) # 40000588 <ets_update_cpu_frequency>
42011508:	05892783          	lw	a5,88(s2)
4201150c:	fffff737          	lui	a4,0xfffff
42011510:	3ff70713          	addi	a4,a4,1023 # fffff3ff <CONFIG_SYSTEM_WORKQUEUE_PRIORITY+0xfffff400>
42011514:	c007f793          	andi	a5,a5,-1024
42011518:	04f92c23          	sw	a5,88(s2)
4201151c:	05892783          	lw	a5,88(s2)
42011520:	00e7f7b3          	and	a5,a5,a4
42011524:	00001737          	lui	a4,0x1
42011528:	80070713          	addi	a4,a4,-2048 # 800 <CONFIG_ISR_STACK_SIZE>
4201152c:	00e7e7b3          	or	a5,a5,a4
42011530:	04f92c23          	sw	a5,88(s2)
42011534:	081b17b7          	lui	a5,0x81b1
42011538:	60008737          	lui	a4,0x60008
4201153c:	81b78793          	addi	a5,a5,-2021 # 81b081b <CONFIG_SYS_CLOCK_HW_CYCLES_PER_SEC+0x726e41b>
42011540:	0af72e23          	sw	a5,188(a4) # 600080bc <GPIO+0x40bc>
42011544:	f53406e3          	beq	s0,s3,42011490 <rtc_clk_cpu_freq_set_config+0x48>
42011548:	01c12083          	lw	ra,28(sp)
4201154c:	01812403          	lw	s0,24(sp)
42011550:	01412483          	lw	s1,20(sp)
42011554:	01012903          	lw	s2,16(sp)
42011558:	00c12983          	lw	s3,12(sp)
4201155c:	02010113          	addi	sp,sp,32
42011560:	00008067          	ret

42011564 <rtc_clk_cpu_freq_set_xtal>:
42011564:	ff010113          	addi	sp,sp,-16
42011568:	00112623          	sw	ra,12(sp)
4201156c:	b95ff0ef          	jal	ra,42011100 <rtc_clk_xtal_freq_get>
42011570:	00100593          	li	a1,1
42011574:	e59ff0ef          	jal	ra,420113cc <rtc_clk_cpu_freq_to_xtal>
42011578:	00c12083          	lw	ra,12(sp)
4201157c:	01010113          	addi	sp,sp,16
42011580:	e54ff06f          	j	42010bd4 <rtc_clk_bbpll_disable>

42011584 <rtc_clk_apb_freq_get>:
42011584:	600087b7          	lui	a5,0x60008
42011588:	0bc7a783          	lw	a5,188(a5) # 600080bc <GPIO+0x40bc>
4201158c:	0ffff737          	lui	a4,0xffff
42011590:	000f4537          	lui	a0,0xf4
42011594:	00c79793          	slli	a5,a5,0xc
42011598:	00e7f7b3          	and	a5,a5,a4
4201159c:	0007a737          	lui	a4,0x7a
420115a0:	12070713          	addi	a4,a4,288 # 7a120 <_image_irom_size+0x759fc>
420115a4:	00e787b3          	add	a5,a5,a4
420115a8:	24050513          	addi	a0,a0,576 # f4240 <_image_irom_size+0xefb1c>
420115ac:	02a7f533          	remu	a0,a5,a0
420115b0:	40a78533          	sub	a0,a5,a0
420115b4:	00008067          	ret

420115b8 <rtc_clk_divider_set>:
420115b8:	600087b7          	lui	a5,0x60008
420115bc:	0747a703          	lw	a4,116(a5) # 60008074 <GPIO+0x4074>
420115c0:	ffc006b7          	lui	a3,0xffc00
420115c4:	fff68693          	addi	a3,a3,-1 # ffbfffff <CONFIG_SYSTEM_WORKQUEUE_PRIORITY+0xffc00000>
420115c8:	00d77733          	and	a4,a4,a3
420115cc:	06e7aa23          	sw	a4,116(a5)
420115d0:	0747a703          	lw	a4,116(a5)
420115d4:	7f8006b7          	lui	a3,0x7f800
420115d8:	01751513          	slli	a0,a0,0x17
420115dc:	00d57533          	and	a0,a0,a3
420115e0:	808006b7          	lui	a3,0x80800
420115e4:	fff68693          	addi	a3,a3,-1 # 807fffff <CONFIG_SYSTEM_WORKQUEUE_PRIORITY+0x80800000>
420115e8:	00d77733          	and	a4,a4,a3
420115ec:	00e56533          	or	a0,a0,a4
420115f0:	06a7aa23          	sw	a0,116(a5)
420115f4:	0747a703          	lw	a4,116(a5)
420115f8:	004006b7          	lui	a3,0x400
420115fc:	00d76733          	or	a4,a4,a3
42011600:	06e7aa23          	sw	a4,116(a5)
42011604:	00008067          	ret

42011608 <rtc_clk_8m_divider_set>:
42011608:	600087b7          	lui	a5,0x60008
4201160c:	0707a703          	lw	a4,112(a5) # 60008070 <GPIO+0x4070>
42011610:	000076b7          	lui	a3,0x7
42011614:	00c51513          	slli	a0,a0,0xc
42011618:	ff777713          	andi	a4,a4,-9
4201161c:	06e7a823          	sw	a4,112(a5)
42011620:	0707a703          	lw	a4,112(a5)
42011624:	00d57533          	and	a0,a0,a3
42011628:	ffff96b7          	lui	a3,0xffff9
4201162c:	fff68693          	addi	a3,a3,-1 # ffff8fff <CONFIG_SYSTEM_WORKQUEUE_PRIORITY+0xffff9000>
42011630:	00d77733          	and	a4,a4,a3
42011634:	00e56533          	or	a0,a0,a4
42011638:	06a7a823          	sw	a0,112(a5)
4201163c:	0707a703          	lw	a4,112(a5)
42011640:	00876713          	ori	a4,a4,8
42011644:	06e7a823          	sw	a4,112(a5)
42011648:	00008067          	ret

4201164c <get_rtc_dbias_by_efuse>:
4201164c:	fd010113          	addi	sp,sp,-48
42011650:	02812423          	sw	s0,40(sp)
42011654:	00700613          	li	a2,7
42011658:	00058413          	mv	s0,a1
4201165c:	82818513          	addi	a0,gp,-2008 # 3fc85068 <ESP_EFUSE_K_RTC_LDO>
42011660:	00010593          	mv	a1,sp
42011664:	02112623          	sw	ra,44(sp)
42011668:	02912223          	sw	s1,36(sp)
4201166c:	03212023          	sw	s2,32(sp)
42011670:	01312e23          	sw	s3,28(sp)
42011674:	00012023          	sw	zero,0(sp)
42011678:	00012223          	sw	zero,4(sp)
4201167c:	00012423          	sw	zero,8(sp)
42011680:	00012623          	sw	zero,12(sp)
42011684:	58c010ef          	jal	ra,42012c10 <esp_efuse_read_field_blob>
42011688:	00050493          	mv	s1,a0
4201168c:	00700613          	li	a2,7
42011690:	00410593          	addi	a1,sp,4
42011694:	82018513          	addi	a0,gp,-2016 # 3fc85060 <ESP_EFUSE_K_DIG_LDO>
42011698:	578010ef          	jal	ra,42012c10 <esp_efuse_read_field_blob>
4201169c:	00050993          	mv	s3,a0
420116a0:	00800613          	li	a2,8
420116a4:	00810593          	addi	a1,sp,8
420116a8:	81818513          	addi	a0,gp,-2024 # 3fc85058 <ESP_EFUSE_V_RTC_DBIAS20>
420116ac:	564010ef          	jal	ra,42012c10 <esp_efuse_read_field_blob>
420116b0:	00050913          	mv	s2,a0
420116b4:	00800613          	li	a2,8
420116b8:	00c10593          	addi	a1,sp,12
420116bc:	81018513          	addi	a0,gp,-2032 # 3fc85050 <ESP_EFUSE_V_DIG_DBIAS20>
420116c0:	0134e4b3          	or	s1,s1,s3
420116c4:	54c010ef          	jal	ra,42012c10 <esp_efuse_read_field_blob>
420116c8:	0124e4b3          	or	s1,s1,s2
420116cc:	00a4e4b3          	or	s1,s1,a0
420116d0:	04048c63          	beqz	s1,42011728 <get_rtc_dbias_by_efuse+0xdc>
420116d4:	3fc857b7          	lui	a5,0x3fc85
420116d8:	0447a703          	lw	a4,68(a5) # 3fc85044 <esp_log_default_level>
420116dc:	00012023          	sw	zero,0(sp)
420116e0:	00012223          	sw	zero,4(sp)
420116e4:	00012423          	sw	zero,8(sp)
420116e8:	00012623          	sw	zero,12(sp)
420116ec:	00100793          	li	a5,1
420116f0:	02e7fc63          	bgeu	a5,a4,42011728 <get_rtc_dbias_by_efuse+0xdc>
420116f4:	fe370097          	auipc	ra,0xfe370
420116f8:	350080e7          	jalr	848(ra) # 40381a44 <esp_log_early_timestamp>
420116fc:	00c12803          	lw	a6,12(sp)
42011700:	00812783          	lw	a5,8(sp)
42011704:	00412703          	lw	a4,4(sp)
42011708:	00012683          	lw	a3,0(sp)
4201170c:	00050593          	mv	a1,a0
42011710:	3c000637          	lui	a2,0x3c000
42011714:	3c000537          	lui	a0,0x3c000
42011718:	13860613          	addi	a2,a2,312 # 3c000138 <GPIO_PIN_MUX_REG+0xe4>
4201171c:	14450513          	addi	a0,a0,324 # 3c000144 <GPIO_PIN_MUX_REG+0xf0>
42011720:	fdfef097          	auipc	ra,0xfdfef
42011724:	920080e7          	jalr	-1760(ra) # 40000040 <esp_rom_printf>
42011728:	00012783          	lw	a5,0(sp)
4201172c:	0407f713          	andi	a4,a5,64
42011730:	00070663          	beqz	a4,4201173c <get_rtc_dbias_by_efuse+0xf0>
42011734:	03f7f793          	andi	a5,a5,63
42011738:	40f007b3          	neg	a5,a5
4201173c:	00412703          	lw	a4,4(sp)
42011740:	04077693          	andi	a3,a4,64
42011744:	0ff77513          	zext.b	a0,a4
42011748:	00068663          	beqz	a3,42011754 <get_rtc_dbias_by_efuse+0x108>
4201174c:	03f77713          	andi	a4,a4,63
42011750:	40e00533          	neg	a0,a4
42011754:	00812703          	lw	a4,8(sp)
42011758:	08077693          	andi	a3,a4,128
4201175c:	0ff77613          	zext.b	a2,a4
42011760:	00068663          	beqz	a3,4201176c <get_rtc_dbias_by_efuse+0x120>
42011764:	07f77713          	andi	a4,a4,127
42011768:	40e00633          	neg	a2,a4
4201176c:	00c12683          	lw	a3,12(sp)
42011770:	0806f593          	andi	a1,a3,128
42011774:	0ff6f713          	zext.b	a4,a3
42011778:	00058663          	beqz	a1,42011784 <get_rtc_dbias_by_efuse+0x138>
4201177c:	07f6f693          	andi	a3,a3,127
42011780:	40d00733          	neg	a4,a3
42011784:	01400693          	li	a3,20
42011788:	02d70733          	mul	a4,a4,a3
4201178c:	0d550513          	addi	a0,a0,213
42011790:	fec40593          	addi	a1,s0,-20
42011794:	0d778793          	addi	a5,a5,215
42011798:	02d60633          	mul	a2,a2,a3
4201179c:	000036b7          	lui	a3,0x3
420117a0:	02a585b3          	mul	a1,a1,a0
420117a4:	a6c68513          	addi	a0,a3,-1428 # 2a6c <CONFIG_HEAP_MEM_POOL_SIZE+0x1a6c>
420117a8:	00a70733          	add	a4,a4,a0
420117ac:	ffb00513          	li	a0,-5
420117b0:	a3068693          	addi	a3,a3,-1488
420117b4:	02a78533          	mul	a0,a5,a0
420117b8:	f0658593          	addi	a1,a1,-250
420117bc:	00e585b3          	add	a1,a1,a4
420117c0:	00d60733          	add	a4,a2,a3
420117c4:	00a70733          	add	a4,a4,a0
420117c8:	00f00513          	li	a0,15
420117cc:	00b77e63          	bgeu	a4,a1,420117e8 <get_rtc_dbias_by_efuse+0x19c>
420117d0:	ffc00713          	li	a4,-4
420117d4:	02e78733          	mul	a4,a5,a4
420117d8:	00c70733          	add	a4,a4,a2
420117dc:	01f00613          	li	a2,31
420117e0:	00150513          	addi	a0,a0,1
420117e4:	02c51063          	bne	a0,a2,42011804 <get_rtc_dbias_by_efuse+0x1b8>
420117e8:	02c12083          	lw	ra,44(sp)
420117ec:	02812403          	lw	s0,40(sp)
420117f0:	02412483          	lw	s1,36(sp)
420117f4:	02012903          	lw	s2,32(sp)
420117f8:	01c12983          	lw	s3,28(sp)
420117fc:	03010113          	addi	sp,sp,48
42011800:	00008067          	ret
42011804:	00e78833          	add	a6,a5,a4
42011808:	00d70733          	add	a4,a4,a3
4201180c:	fcb77ee3          	bgeu	a4,a1,420117e8 <get_rtc_dbias_by_efuse+0x19c>
42011810:	00080713          	mv	a4,a6
42011814:	fcdff06f          	j	420117e0 <get_rtc_dbias_by_efuse+0x194>

42011818 <rtc_init>:
42011818:	fc010113          	addi	sp,sp,-64
4201181c:	02812c23          	sw	s0,56(sp)
42011820:	00000793          	li	a5,0
42011824:	00050413          	mv	s0,a0
42011828:	00300713          	li	a4,3
4201182c:	00300693          	li	a3,3
42011830:	00d00613          	li	a2,13
42011834:	00000593          	li	a1,0
42011838:	06d00513          	li	a0,109
4201183c:	02112e23          	sw	ra,60(sp)
42011840:	02912a23          	sw	s1,52(sp)
42011844:	03212823          	sw	s2,48(sp)
42011848:	03312623          	sw	s3,44(sp)
4201184c:	03412423          	sw	s4,40(sp)
42011850:	fe36f097          	auipc	ra,0xfe36f
42011854:	bfc080e7          	jalr	-1028(ra) # 4038044c <regi2c_ctrl_write_reg_mask>
42011858:	00000793          	li	a5,0
4201185c:	00200713          	li	a4,2
42011860:	00200693          	li	a3,2
42011864:	00d00613          	li	a2,13
42011868:	00000593          	li	a1,0
4201186c:	06d00513          	li	a0,109
42011870:	fe36f097          	auipc	ra,0xfe36f
42011874:	bdc080e7          	jalr	-1060(ra) # 4038044c <regi2c_ctrl_write_reg_mask>
42011878:	600087b7          	lui	a5,0x60008
4201187c:	0347a703          	lw	a4,52(a5) # 60008034 <GPIO+0x4034>
42011880:	fc0006b7          	lui	a3,0xfc000
42011884:	fff68693          	addi	a3,a3,-1 # fbffffff <CONFIG_SYSTEM_WORKQUEUE_PRIORITY+0xfc000000>
42011888:	00d77733          	and	a4,a4,a3
4201188c:	02e7aa23          	sw	a4,52(a5)
42011890:	01c7a683          	lw	a3,28(a5)
42011894:	01045713          	srli	a4,s0,0x10
42011898:	01871713          	slli	a4,a4,0x18
4201189c:	00869693          	slli	a3,a3,0x8
420118a0:	0086d693          	srli	a3,a3,0x8
420118a4:	00d76733          	or	a4,a4,a3
420118a8:	00e7ae23          	sw	a4,28(a5)
420118ac:	01c7a683          	lw	a3,28(a5)
420118b0:	ffffc637          	lui	a2,0xffffc
420118b4:	03f60613          	addi	a2,a2,63 # ffffc03f <CONFIG_SYSTEM_WORKQUEUE_PRIORITY+0xffffc040>
420118b8:	0ff47713          	zext.b	a4,s0
420118bc:	00c6f6b3          	and	a3,a3,a2
420118c0:	00671713          	slli	a4,a4,0x6
420118c4:	00d76733          	or	a4,a4,a3
420118c8:	00e7ae23          	sw	a4,28(a5)
420118cc:	02c7a703          	lw	a4,44(a5)
420118d0:	ffff0637          	lui	a2,0xffff0
420118d4:	0ff60693          	addi	a3,a2,255 # ffff00ff <CONFIG_SYSTEM_WORKQUEUE_PRIORITY+0xffff0100>
420118d8:	00d77733          	and	a4,a4,a3
420118dc:	20076713          	ori	a4,a4,512
420118e0:	02e7a623          	sw	a4,44(a5)
420118e4:	0247a703          	lw	a4,36(a5)
420118e8:	1ff60613          	addi	a2,a2,511
420118ec:	020005b7          	lui	a1,0x2000
420118f0:	00c77733          	and	a4,a4,a2
420118f4:	20076713          	ori	a4,a4,512
420118f8:	02e7a223          	sw	a4,36(a5)
420118fc:	0247a703          	lw	a4,36(a5)
42011900:	fff58813          	addi	a6,a1,-1 # 1ffffff <CONFIG_SYS_CLOCK_HW_CYCLES_PER_SEC+0x10bdbff>
42011904:	fe0106b7          	lui	a3,0xfe010
42011908:	e0077713          	andi	a4,a4,-512
4201190c:	00176713          	ori	a4,a4,1
42011910:	02e7a223          	sw	a4,36(a5)
42011914:	0247a703          	lw	a4,36(a5)
42011918:	fff68693          	addi	a3,a3,-1 # fe00ffff <CONFIG_SYSTEM_WORKQUEUE_PRIORITY+0xfe010000>
4201191c:	00010537          	lui	a0,0x10
42011920:	01077733          	and	a4,a4,a6
42011924:	00b76733          	or	a4,a4,a1
42011928:	02e7a223          	sw	a4,36(a5)
4201192c:	0247a703          	lw	a4,36(a5)
42011930:	00d77733          	and	a4,a4,a3
42011934:	00a76733          	or	a4,a4,a0
42011938:	02e7a223          	sw	a4,36(a5)
4201193c:	0287a703          	lw	a4,40(a5)
42011940:	00c77733          	and	a4,a4,a2
42011944:	20076713          	ori	a4,a4,512
42011948:	02e7a423          	sw	a4,40(a5)
4201194c:	0287a703          	lw	a4,40(a5)
42011950:	e0077713          	andi	a4,a4,-512
42011954:	00176713          	ori	a4,a4,1
42011958:	02e7a423          	sw	a4,40(a5)
4201195c:	0287a703          	lw	a4,40(a5)
42011960:	01077733          	and	a4,a4,a6
42011964:	00b76733          	or	a4,a4,a1
42011968:	02e7a423          	sw	a4,40(a5)
4201196c:	0287a703          	lw	a4,40(a5)
42011970:	00d77733          	and	a4,a4,a3
42011974:	00a76733          	or	a4,a4,a0
42011978:	02e7a423          	sw	a4,40(a5)
4201197c:	0307a703          	lw	a4,48(a5)
42011980:	01077733          	and	a4,a4,a6
42011984:	00b76733          	or	a4,a4,a1
42011988:	02e7a823          	sw	a4,48(a5)
4201198c:	0307a703          	lw	a4,48(a5)
42011990:	00d77733          	and	a4,a4,a3
42011994:	00a76733          	or	a4,a4,a0
42011998:	02e7a823          	sw	a4,48(a5)
4201199c:	400007b7          	lui	a5,0x40000
420119a0:	00f477b3          	and	a5,s0,a5
420119a4:	0a078a63          	beqz	a5,42011a58 <rtc_init+0x240>
420119a8:	00300613          	li	a2,3
420119ac:	00c10593          	addi	a1,sp,12
420119b0:	83818513          	addi	a0,gp,-1992 # 3fc85078 <ESP_EFUSE_BLOCK2_VERSION>
420119b4:	00012623          	sw	zero,12(sp)
420119b8:	258010ef          	jal	ra,42012c10 <esp_efuse_read_field_blob>
420119bc:	04050063          	beqz	a0,420119fc <rtc_init+0x1e4>
420119c0:	3fc857b7          	lui	a5,0x3fc85
420119c4:	0447a703          	lw	a4,68(a5) # 3fc85044 <esp_log_default_level>
420119c8:	00012623          	sw	zero,12(sp)
420119cc:	00100793          	li	a5,1
420119d0:	3ce7f263          	bgeu	a5,a4,42011d94 <rtc_init+0x57c>
420119d4:	fe370097          	auipc	ra,0xfe370
420119d8:	070080e7          	jalr	112(ra) # 40381a44 <esp_log_early_timestamp>
420119dc:	00c12683          	lw	a3,12(sp)
420119e0:	00050593          	mv	a1,a0
420119e4:	3c000637          	lui	a2,0x3c000
420119e8:	3c000537          	lui	a0,0x3c000
420119ec:	13860613          	addi	a2,a2,312 # 3c000138 <GPIO_PIN_MUX_REG+0xe4>
420119f0:	1a450513          	addi	a0,a0,420 # 3c0001a4 <GPIO_PIN_MUX_REG+0x150>
420119f4:	fdfee097          	auipc	ra,0xfdfee
420119f8:	64c080e7          	jalr	1612(ra) # 40000040 <esp_rom_printf>
420119fc:	00c12703          	lw	a4,12(sp)
42011a00:	00100793          	li	a5,1
42011a04:	38f71863          	bne	a4,a5,42011d94 <rtc_init+0x57c>
42011a08:	00800613          	li	a2,8
42011a0c:	01010593          	addi	a1,sp,16
42011a10:	83018513          	addi	a0,gp,-2000 # 3fc85070 <ESP_EFUSE_OCODE>
42011a14:	1fc010ef          	jal	ra,42012c10 <esp_efuse_read_field_blob>
42011a18:	01014783          	lbu	a5,16(sp)
42011a1c:	00000713          	li	a4,0
42011a20:	00700693          	li	a3,7
42011a24:	00600613          	li	a2,6
42011a28:	00000593          	li	a1,0
42011a2c:	06100513          	li	a0,97
42011a30:	fe36f097          	auipc	ra,0xfe36f
42011a34:	a1c080e7          	jalr	-1508(ra) # 4038044c <regi2c_ctrl_write_reg_mask>
42011a38:	00100793          	li	a5,1
42011a3c:	00600713          	li	a4,6
42011a40:	00600693          	li	a3,6
42011a44:	00500613          	li	a2,5
42011a48:	00000593          	li	a1,0
42011a4c:	06100513          	li	a0,97
42011a50:	fe36f097          	auipc	ra,0xfe36f
42011a54:	9fc080e7          	jalr	-1540(ra) # 4038044c <regi2c_ctrl_write_reg_mask>
42011a58:	188010ef          	jal	ra,42012be0 <esp_efuse_get_chip_ver>
42011a5c:	00200793          	li	a5,2
42011a60:	00050913          	mv	s2,a0
42011a64:	46a7e663          	bltu	a5,a0,42011ed0 <rtc_init+0x6b8>
42011a68:	01c00493          	li	s1,28
42011a6c:	01c00513          	li	a0,28
42011a70:	0ff57793          	zext.b	a5,a0
42011a74:	00000713          	li	a4,0
42011a78:	00400693          	li	a3,4
42011a7c:	00400613          	li	a2,4
42011a80:	00000593          	li	a1,0
42011a84:	06d00513          	li	a0,109
42011a88:	fe36f097          	auipc	ra,0xfe36f
42011a8c:	9c4080e7          	jalr	-1596(ra) # 4038044c <regi2c_ctrl_write_reg_mask>
42011a90:	0ff4f793          	zext.b	a5,s1
42011a94:	00000713          	li	a4,0
42011a98:	00400693          	li	a3,4
42011a9c:	00600613          	li	a2,6
42011aa0:	00000593          	li	a1,0
42011aa4:	06d00513          	li	a0,109
42011aa8:	fe36f097          	auipc	ra,0xfe36f
42011aac:	9a4080e7          	jalr	-1628(ra) # 4038044c <regi2c_ctrl_write_reg_mask>
42011ab0:	010007b7          	lui	a5,0x1000
42011ab4:	00f477b3          	and	a5,s0,a5
42011ab8:	04078063          	beqz	a5,42011af8 <rtc_init+0x2e0>
42011abc:	600c47b7          	lui	a5,0x600c4
42011ac0:	0ac7a703          	lw	a4,172(a5) # 600c40ac <USB_SERIAL_JTAG+0x810ac>
42011ac4:	ffe77713          	andi	a4,a4,-2
42011ac8:	0ae7a623          	sw	a4,172(a5)
42011acc:	0087a703          	lw	a4,8(a5)
42011ad0:	ffe77713          	andi	a4,a4,-2
42011ad4:	00e7a423          	sw	a4,8(a5)
42011ad8:	60003737          	lui	a4,0x60003
42011adc:	0dc72783          	lw	a5,220(a4) # 600030dc <_rtc_bss_end+0x100030dc>
42011ae0:	ffe7f793          	andi	a5,a5,-2
42011ae4:	0cf72e23          	sw	a5,220(a4)
42011ae8:	60002737          	lui	a4,0x60002
42011aec:	0dc72783          	lw	a5,220(a4) # 600020dc <_rtc_bss_end+0x100020dc>
42011af0:	ffe7f793          	andi	a5,a5,-2
42011af4:	0cf72e23          	sw	a5,220(a4)
42011af8:	020007b7          	lui	a5,0x2000
42011afc:	00f477b3          	and	a5,s0,a5
42011b00:	22078063          	beqz	a5,42011d20 <rtc_init+0x508>
42011b04:	600087b7          	lui	a5,0x60008
42011b08:	0707a703          	lw	a4,112(a5) # 60008070 <GPIO+0x4070>
42011b0c:	fc0006b7          	lui	a3,0xfc000
42011b10:	fff68693          	addi	a3,a3,-1 # fbffffff <CONFIG_SYSTEM_WORKQUEUE_PRIORITY+0xfc000000>
42011b14:	00d77733          	and	a4,a4,a3
42011b18:	06e7a823          	sw	a4,112(a5)
42011b1c:	01b45693          	srli	a3,s0,0x1b
42011b20:	01c45713          	srli	a4,s0,0x1c
42011b24:	00d76733          	or	a4,a4,a3
42011b28:	00177713          	andi	a4,a4,1
42011b2c:	42071463          	bnez	a4,42011f54 <rtc_init+0x73c>
42011b30:	0007a703          	lw	a4,0(a5)
42011b34:	ffffe6b7          	lui	a3,0xffffe
42011b38:	fff68693          	addi	a3,a3,-1 # ffffdfff <CONFIG_SYSTEM_WORKQUEUE_PRIORITY+0xffffe000>
42011b3c:	00d77733          	and	a4,a4,a3
42011b40:	00e7a023          	sw	a4,0(a5)
42011b44:	600087b7          	lui	a5,0x60008
42011b48:	0347a703          	lw	a4,52(a5) # 60008034 <GPIO+0x4034>
42011b4c:	ff0006b7          	lui	a3,0xff000
42011b50:	fff68693          	addi	a3,a3,-1 # feffffff <CONFIG_SYSTEM_WORKQUEUE_PRIORITY+0xff000000>
42011b54:	00d77733          	and	a4,a4,a3
42011b58:	02e7aa23          	sw	a4,52(a5)
42011b5c:	0347a703          	lw	a4,52(a5)
42011b60:	008006b7          	lui	a3,0x800
42011b64:	00d76733          	or	a4,a4,a3
42011b68:	02e7aa23          	sw	a4,52(a5)
42011b6c:	0347a703          	lw	a4,52(a5)
42011b70:	fffc06b7          	lui	a3,0xfffc0
42011b74:	fff68693          	addi	a3,a3,-1 # fffbffff <CONFIG_SYSTEM_WORKQUEUE_PRIORITY+0xfffc0000>
42011b78:	00d77733          	and	a4,a4,a3
42011b7c:	02e7aa23          	sw	a4,52(a5)
42011b80:	10000737          	lui	a4,0x10000
42011b84:	00e47733          	and	a4,s0,a4
42011b88:	3c071e63          	bnez	a4,42011f64 <rtc_init+0x74c>
42011b8c:	0007a703          	lw	a4,0(a5)
42011b90:	fffff6b7          	lui	a3,0xfffff
42011b94:	7ff68693          	addi	a3,a3,2047 # fffff7ff <CONFIG_SYSTEM_WORKQUEUE_PRIORITY+0xfffff800>
42011b98:	00d77733          	and	a4,a4,a3
42011b9c:	00e7a023          	sw	a4,0(a5)
42011ba0:	0007a703          	lw	a4,0(a5)
42011ba4:	dff77713          	andi	a4,a4,-513
42011ba8:	00e7a023          	sw	a4,0(a5)
42011bac:	0007a703          	lw	a4,0(a5)
42011bb0:	f7f77713          	andi	a4,a4,-129
42011bb4:	00e7a023          	sw	a4,0(a5)
42011bb8:	600087b7          	lui	a5,0x60008
42011bbc:	0807a703          	lw	a4,128(a5) # 60008080 <GPIO+0x4080>
42011bc0:	e00006b7          	lui	a3,0xe0000
42011bc4:	fff68693          	addi	a3,a3,-1 # dfffffff <CONFIG_SYSTEM_WORKQUEUE_PRIORITY+0xe0000000>
42011bc8:	00171713          	slli	a4,a4,0x1
42011bcc:	00175713          	srli	a4,a4,0x1
42011bd0:	08e7a023          	sw	a4,128(a5)
42011bd4:	0807a703          	lw	a4,128(a5)
42011bd8:	00d77733          	and	a4,a4,a3
42011bdc:	08e7a023          	sw	a4,128(a5)
42011be0:	04000737          	lui	a4,0x4000
42011be4:	00e47733          	and	a4,s0,a4
42011be8:	3a070463          	beqz	a4,42011f90 <rtc_init+0x778>
42011bec:	0807a703          	lw	a4,128(a5)
42011bf0:	100006b7          	lui	a3,0x10000
42011bf4:	00d76733          	or	a4,a4,a3
42011bf8:	08e7a023          	sw	a4,128(a5)
42011bfc:	600c04b7          	lui	s1,0x600c0
42011c00:	00c4a783          	lw	a5,12(s1) # 600c000c <USB_SERIAL_JTAG+0x7d00c>
42011c04:	00000513          	li	a0,0
42011c08:	ffe7f793          	andi	a5,a5,-2
42011c0c:	00f4a623          	sw	a5,12(s1)
42011c10:	e3dfe0ef          	jal	ra,42010a4c <rtc_sleep_pu>
42011c14:	600087b7          	lui	a5,0x60008
42011c18:	0887a703          	lw	a4,136(a5) # 60008088 <GPIO+0x4088>
42011c1c:	fff006b7          	lui	a3,0xfff00
42011c20:	fff68693          	addi	a3,a3,-1 # ffefffff <CONFIG_SYSTEM_WORKQUEUE_PRIORITY+0xfff00000>
42011c24:	00d77733          	and	a4,a4,a3
42011c28:	08e7a423          	sw	a4,136(a5)
42011c2c:	0887a703          	lw	a4,136(a5)
42011c30:	fffc06b7          	lui	a3,0xfffc0
42011c34:	fff68693          	addi	a3,a3,-1 # fffbffff <CONFIG_SYSTEM_WORKQUEUE_PRIORITY+0xfffc0000>
42011c38:	00d77733          	and	a4,a4,a3
42011c3c:	08e7a423          	sw	a4,136(a5)
42011c40:	0887a703          	lw	a4,136(a5)
42011c44:	fffff6b7          	lui	a3,0xfffff
42011c48:	fff68693          	addi	a3,a3,-1 # ffffefff <CONFIG_SYSTEM_WORKQUEUE_PRIORITY+0xfffff000>
42011c4c:	00d77733          	and	a4,a4,a3
42011c50:	08e7a423          	sw	a4,136(a5)
42011c54:	0887a703          	lw	a4,136(a5)
42011c58:	ffc006b7          	lui	a3,0xffc00
42011c5c:	fff68693          	addi	a3,a3,-1 # ffbfffff <CONFIG_SYSTEM_WORKQUEUE_PRIORITY+0xffc00000>
42011c60:	00d77733          	and	a4,a4,a3
42011c64:	08e7a423          	sw	a4,136(a5)
42011c68:	0887a703          	lw	a4,136(a5)
42011c6c:	ffffc6b7          	lui	a3,0xffffc
42011c70:	fff68693          	addi	a3,a3,-1 # ffffbfff <CONFIG_SYSTEM_WORKQUEUE_PRIORITY+0xffffc000>
42011c74:	00d77733          	and	a4,a4,a3
42011c78:	08e7a423          	sw	a4,136(a5)
42011c7c:	08c7a703          	lw	a4,140(a5)
42011c80:	e00006b7          	lui	a3,0xe0000
42011c84:	fff68693          	addi	a3,a3,-1 # dfffffff <CONFIG_SYSTEM_WORKQUEUE_PRIORITY+0xe0000000>
42011c88:	00171713          	slli	a4,a4,0x1
42011c8c:	00175713          	srli	a4,a4,0x1
42011c90:	08e7a623          	sw	a4,140(a5)
42011c94:	08c7a703          	lw	a4,140(a5)
42011c98:	00d77733          	and	a4,a4,a3
42011c9c:	08e7a623          	sw	a4,140(a5)
42011ca0:	08c7a703          	lw	a4,140(a5)
42011ca4:	ff8006b7          	lui	a3,0xff800
42011ca8:	fff68693          	addi	a3,a3,-1 # ff7fffff <CONFIG_SYSTEM_WORKQUEUE_PRIORITY+0xff800000>
42011cac:	00d77733          	and	a4,a4,a3
42011cb0:	08e7a623          	sw	a4,140(a5)
42011cb4:	08c7a703          	lw	a4,140(a5)
42011cb8:	f80006b7          	lui	a3,0xf8000
42011cbc:	fff68693          	addi	a3,a3,-1 # f7ffffff <CONFIG_SYSTEM_WORKQUEUE_PRIORITY+0xf8000000>
42011cc0:	00d77733          	and	a4,a4,a3
42011cc4:	08e7a623          	sw	a4,140(a5)
42011cc8:	08c7a703          	lw	a4,140(a5)
42011ccc:	fe0006b7          	lui	a3,0xfe000
42011cd0:	fff68693          	addi	a3,a3,-1 # fdffffff <CONFIG_SYSTEM_WORKQUEUE_PRIORITY+0xfe000000>
42011cd4:	00d77733          	and	a4,a4,a3
42011cd8:	08e7a623          	sw	a4,140(a5)
42011cdc:	200007b7          	lui	a5,0x20000
42011ce0:	00f47433          	and	s0,s0,a5
42011ce4:	0084a783          	lw	a5,8(s1)
42011ce8:	2a040e63          	beqz	s0,42011fa4 <rtc_init+0x78c>
42011cec:	ff77f793          	andi	a5,a5,-9
42011cf0:	00f4a423          	sw	a5,8(s1)
42011cf4:	600087b7          	lui	a5,0x60008
42011cf8:	08c7a703          	lw	a4,140(a5) # 6000808c <GPIO+0x408c>
42011cfc:	ffffc6b7          	lui	a3,0xffffc
42011d00:	fff68693          	addi	a3,a3,-1 # ffffbfff <CONFIG_SYSTEM_WORKQUEUE_PRIORITY+0xffffc000>
42011d04:	00d77733          	and	a4,a4,a3
42011d08:	08e7a623          	sw	a4,140(a5)
42011d0c:	08c7a703          	lw	a4,140(a5)
42011d10:	fffff6b7          	lui	a3,0xfffff
42011d14:	fff68693          	addi	a3,a3,-1 # ffffefff <CONFIG_SYSTEM_WORKQUEUE_PRIORITY+0xfffff000>
42011d18:	00d77733          	and	a4,a4,a3
42011d1c:	08e7a623          	sw	a4,140(a5)
42011d20:	600087b7          	lui	a5,0x60008
42011d24:	08c7a703          	lw	a4,140(a5) # 6000808c <GPIO+0x408c>
42011d28:	100006b7          	lui	a3,0x10000
42011d2c:	00d76733          	or	a4,a4,a3
42011d30:	08e7a623          	sw	a4,140(a5)
42011d34:	0887a703          	lw	a4,136(a5)
42011d38:	000206b7          	lui	a3,0x20
42011d3c:	00d76733          	or	a4,a4,a3
42011d40:	08e7a423          	sw	a4,136(a5)
42011d44:	08c7a703          	lw	a4,140(a5)
42011d48:	004006b7          	lui	a3,0x400
42011d4c:	00d76733          	or	a4,a4,a3
42011d50:	08e7a623          	sw	a4,140(a5)
42011d54:	0887a703          	lw	a4,136(a5)
42011d58:	000016b7          	lui	a3,0x1
42011d5c:	80068693          	addi	a3,a3,-2048 # 800 <CONFIG_ISR_STACK_SIZE>
42011d60:	00d76733          	or	a4,a4,a3
42011d64:	08e7a423          	sw	a4,136(a5)
42011d68:	0407a023          	sw	zero,64(a5)
42011d6c:	fff00713          	li	a4,-1
42011d70:	04e7a623          	sw	a4,76(a5)
42011d74:	03c12083          	lw	ra,60(sp)
42011d78:	03812403          	lw	s0,56(sp)
42011d7c:	03412483          	lw	s1,52(sp)
42011d80:	03012903          	lw	s2,48(sp)
42011d84:	02c12983          	lw	s3,44(sp)
42011d88:	02812a03          	lw	s4,40(sp)
42011d8c:	04010113          	addi	sp,sp,64
42011d90:	00008067          	ret
42011d94:	90cff0ef          	jal	ra,42010ea0 <rtc_clk_slow_freq_get>
42011d98:	00050793          	mv	a5,a0
42011d9c:	00100713          	li	a4,1
42011da0:	00200513          	li	a0,2
42011da4:	00e78663          	beq	a5,a4,42011db0 <rtc_init+0x598>
42011da8:	ffe78793          	addi	a5,a5,-2
42011dac:	0017b513          	seqz	a0,a5
42011db0:	06400593          	li	a1,100
42011db4:	4a8000ef          	jal	ra,4201225c <rtc_clk_cal>
42011db8:	00050613          	mv	a2,a0
42011dbc:	00002537          	lui	a0,0x2
42011dc0:	71050513          	addi	a0,a0,1808 # 2710 <CONFIG_HEAP_MEM_POOL_SIZE+0x1710>
42011dc4:	00000593          	li	a1,0
42011dc8:	520000ef          	jal	ra,420122e8 <rtc_time_us_to_slowclk>
42011dcc:	00050493          	mv	s1,a0
42011dd0:	00058913          	mv	s2,a1
42011dd4:	544000ef          	jal	ra,42012318 <rtc_time_get>
42011dd8:	00a489b3          	add	s3,s1,a0
42011ddc:	01010513          	addi	a0,sp,16
42011de0:	00b90933          	add	s2,s2,a1
42011de4:	c2cff0ef          	jal	ra,42011210 <rtc_clk_cpu_freq_get_config>
42011de8:	f7cff0ef          	jal	ra,42011564 <rtc_clk_cpu_freq_set_xtal>
42011dec:	00000793          	li	a5,0
42011df0:	00000713          	li	a4,0
42011df4:	00000693          	li	a3,0
42011df8:	00000613          	li	a2,0
42011dfc:	00000593          	li	a1,0
42011e00:	06100513          	li	a0,97
42011e04:	fe36e097          	auipc	ra,0xfe36e
42011e08:	648080e7          	jalr	1608(ra) # 4038044c <regi2c_ctrl_write_reg_mask>
42011e0c:	0099b4b3          	sltu	s1,s3,s1
42011e10:	00100793          	li	a5,1
42011e14:	00000713          	li	a4,0
42011e18:	00000693          	li	a3,0
42011e1c:	00000613          	li	a2,0
42011e20:	00000593          	li	a1,0
42011e24:	06100513          	li	a0,97
42011e28:	012484b3          	add	s1,s1,s2
42011e2c:	fe36e097          	auipc	ra,0xfe36e
42011e30:	620080e7          	jalr	1568(ra) # 4038044c <regi2c_ctrl_write_reg_mask>
42011e34:	00000713          	li	a4,0
42011e38:	00000693          	li	a3,0
42011e3c:	00300613          	li	a2,3
42011e40:	00000593          	li	a1,0
42011e44:	06100513          	li	a0,97
42011e48:	fe36e097          	auipc	ra,0xfe36e
42011e4c:	58c080e7          	jalr	1420(ra) # 403803d4 <regi2c_ctrl_read_reg_mask>
42011e50:	00300713          	li	a4,3
42011e54:	00300693          	li	a3,3
42011e58:	00300613          	li	a2,3
42011e5c:	00000593          	li	a1,0
42011e60:	00050a13          	mv	s4,a0
42011e64:	06100513          	li	a0,97
42011e68:	fe36e097          	auipc	ra,0xfe36e
42011e6c:	56c080e7          	jalr	1388(ra) # 403803d4 <regi2c_ctrl_read_reg_mask>
42011e70:	00050913          	mv	s2,a0
42011e74:	4a4000ef          	jal	ra,42012318 <rtc_time_get>
42011e78:	00050793          	mv	a5,a0
42011e7c:	000a0463          	beqz	s4,42011e84 <rtc_init+0x66c>
42011e80:	04091263          	bnez	s2,42011ec4 <rtc_init+0x6ac>
42011e84:	fa95e8e3          	bltu	a1,s1,42011e34 <rtc_init+0x61c>
42011e88:	00b49463          	bne	s1,a1,42011e90 <rtc_init+0x678>
42011e8c:	fb37e4e3          	bltu	a5,s3,42011e34 <rtc_init+0x61c>
42011e90:	3fc857b7          	lui	a5,0x3fc85
42011e94:	0447a703          	lw	a4,68(a5) # 3fc85044 <esp_log_default_level>
42011e98:	00100793          	li	a5,1
42011e9c:	02e7f463          	bgeu	a5,a4,42011ec4 <rtc_init+0x6ac>
42011ea0:	fe370097          	auipc	ra,0xfe370
42011ea4:	ba4080e7          	jalr	-1116(ra) # 40381a44 <esp_log_early_timestamp>
42011ea8:	00050593          	mv	a1,a0
42011eac:	3c000637          	lui	a2,0x3c000
42011eb0:	3c000537          	lui	a0,0x3c000
42011eb4:	13860613          	addi	a2,a2,312 # 3c000138 <GPIO_PIN_MUX_REG+0xe4>
42011eb8:	1e450513          	addi	a0,a0,484 # 3c0001e4 <GPIO_PIN_MUX_REG+0x190>
42011ebc:	fdfee097          	auipc	ra,0xfdfee
42011ec0:	184080e7          	jalr	388(ra) # 40000040 <esp_rom_printf>
42011ec4:	01010513          	addi	a0,sp,16
42011ec8:	d80ff0ef          	jal	ra,42011448 <rtc_clk_cpu_freq_set_config>
42011ecc:	b8dff06f          	j	42011a58 <rtc_init+0x240>
42011ed0:	3fc85537          	lui	a0,0x3fc85
42011ed4:	01c00493          	li	s1,28
42011ed8:	00500613          	li	a2,5
42011edc:	01010593          	addi	a1,sp,16
42011ee0:	04850513          	addi	a0,a0,72 # 3fc85048 <ESP_EFUSE_DIG_DBIAS_HVT>
42011ee4:	00912823          	sw	s1,16(sp)
42011ee8:	529000ef          	jal	ra,42012c10 <esp_efuse_read_field_blob>
42011eec:	04050063          	beqz	a0,42011f2c <rtc_init+0x714>
42011ef0:	3fc857b7          	lui	a5,0x3fc85
42011ef4:	0447a703          	lw	a4,68(a5) # 3fc85044 <esp_log_default_level>
42011ef8:	00912823          	sw	s1,16(sp)
42011efc:	00100793          	li	a5,1
42011f00:	02e7f663          	bgeu	a5,a4,42011f2c <rtc_init+0x714>
42011f04:	fe370097          	auipc	ra,0xfe370
42011f08:	b40080e7          	jalr	-1216(ra) # 40381a44 <esp_log_early_timestamp>
42011f0c:	01012683          	lw	a3,16(sp)
42011f10:	00050593          	mv	a1,a0
42011f14:	3c000637          	lui	a2,0x3c000
42011f18:	3c000537          	lui	a0,0x3c000
42011f1c:	13860613          	addi	a2,a2,312 # 3c000138 <GPIO_PIN_MUX_REG+0xe4>
42011f20:	20c50513          	addi	a0,a0,524 # 3c00020c <GPIO_PIN_MUX_REG+0x1b8>
42011f24:	fdfee097          	auipc	ra,0xfdfee
42011f28:	11c080e7          	jalr	284(ra) # 40000040 <esp_rom_printf>
42011f2c:	01012483          	lw	s1,16(sp)
42011f30:	b2048ce3          	beqz	s1,42011a68 <rtc_init+0x250>
42011f34:	00448493          	addi	s1,s1,4
42011f38:	01c00793          	li	a5,28
42011f3c:	0097f463          	bgeu	a5,s1,42011f44 <rtc_init+0x72c>
42011f40:	01c00493          	li	s1,28
42011f44:	00048593          	mv	a1,s1
42011f48:	00090513          	mv	a0,s2
42011f4c:	f00ff0ef          	jal	ra,4201164c <get_rtc_dbias_by_efuse>
42011f50:	b21ff06f          	j	42011a70 <rtc_init+0x258>
42011f54:	0007a703          	lw	a4,0(a5)
42011f58:	000026b7          	lui	a3,0x2
42011f5c:	00d76733          	or	a4,a4,a3
42011f60:	be1ff06f          	j	42011b40 <rtc_init+0x328>
42011f64:	0007a703          	lw	a4,0(a5)
42011f68:	000016b7          	lui	a3,0x1
42011f6c:	80068693          	addi	a3,a3,-2048 # 800 <CONFIG_ISR_STACK_SIZE>
42011f70:	00d76733          	or	a4,a4,a3
42011f74:	00e7a023          	sw	a4,0(a5)
42011f78:	0007a703          	lw	a4,0(a5)
42011f7c:	20076713          	ori	a4,a4,512
42011f80:	00e7a023          	sw	a4,0(a5)
42011f84:	0007a703          	lw	a4,0(a5)
42011f88:	08076713          	ori	a4,a4,128
42011f8c:	c29ff06f          	j	42011bb4 <rtc_init+0x39c>
42011f90:	0807a703          	lw	a4,128(a5)
42011f94:	f00006b7          	lui	a3,0xf0000
42011f98:	fff68693          	addi	a3,a3,-1 # efffffff <CONFIG_SYSTEM_WORKQUEUE_PRIORITY+0xf0000000>
42011f9c:	00d77733          	and	a4,a4,a3
42011fa0:	c59ff06f          	j	42011bf8 <rtc_init+0x3e0>
42011fa4:	0087e793          	ori	a5,a5,8
42011fa8:	d49ff06f          	j	42011cf0 <rtc_init+0x4d8>

42011fac <rtc_clk_cal_internal>:
42011fac:	ff010113          	addi	sp,sp,-16
42011fb0:	00912223          	sw	s1,4(sp)
42011fb4:	01212023          	sw	s2,0(sp)
42011fb8:	00112623          	sw	ra,12(sp)
42011fbc:	00812423          	sw	s0,8(sp)
42011fc0:	00050493          	mv	s1,a0
42011fc4:	00058913          	mv	s2,a1
42011fc8:	20051863          	bnez	a0,420121d8 <rtc_clk_cal_internal+0x22c>
42011fcc:	ed5fe0ef          	jal	ra,42010ea0 <rtc_clk_slow_freq_get>
42011fd0:	00100793          	li	a5,1
42011fd4:	02f51863          	bne	a0,a5,42012004 <rtc_clk_cal_internal+0x58>
42011fd8:	600087b7          	lui	a5,0x60008
42011fdc:	0707a403          	lw	s0,112(a5) # 60008070 <GPIO+0x4070>
42011fe0:	00845413          	srli	s0,s0,0x8
42011fe4:	00147413          	andi	s0,s0,1
42011fe8:	00200493          	li	s1,2
42011fec:	04041c63          	bnez	s0,42012044 <rtc_clk_cal_internal+0x98>
42011ff0:	60008737          	lui	a4,0x60008
42011ff4:	07072783          	lw	a5,112(a4) # 60008070 <GPIO+0x4070>
42011ff8:	1007e793          	ori	a5,a5,256
42011ffc:	06f72823          	sw	a5,112(a4)
42012000:	0440006f          	j	42012044 <rtc_clk_cal_internal+0x98>
42012004:	00200793          	li	a5,2
42012008:	02f51663          	bne	a0,a5,42012034 <rtc_clk_cal_internal+0x88>
4201200c:	600087b7          	lui	a5,0x60008
42012010:	0707a403          	lw	s0,112(a5) # 60008070 <GPIO+0x4070>
42012014:	00845413          	srli	s0,s0,0x8
42012018:	00147413          	andi	s0,s0,1
4201201c:	60008737          	lui	a4,0x60008
42012020:	07072783          	lw	a5,112(a4) # 60008070 <GPIO+0x4070>
42012024:	00100493          	li	s1,1
42012028:	2007e793          	ori	a5,a5,512
4201202c:	06f72823          	sw	a5,112(a4)
42012030:	0140006f          	j	42012044 <rtc_clk_cal_internal+0x98>
42012034:	600087b7          	lui	a5,0x60008
42012038:	0707a403          	lw	s0,112(a5) # 60008070 <GPIO+0x4070>
4201203c:	00845413          	srli	s0,s0,0x8
42012040:	00147413          	andi	s0,s0,1
42012044:	6001f737          	lui	a4,0x6001f
42012048:	06872783          	lw	a5,104(a4) # 6001f068 <GPIO+0x1b068>
4201204c:	000016b7          	lui	a3,0x1
42012050:	00d7f7b3          	and	a5,a5,a3
42012054:	02078863          	beqz	a5,42012084 <rtc_clk_cal_internal+0xd8>
42012058:	08072783          	lw	a5,128(a4)
4201205c:	000086b7          	lui	a3,0x8
42012060:	0ff7f793          	zext.b	a5,a5
42012064:	0807e793          	ori	a5,a5,128
42012068:	08f72023          	sw	a5,128(a4)
4201206c:	06872783          	lw	a5,104(a4)
42012070:	00d7f7b3          	and	a5,a5,a3
42012074:	00079863          	bnez	a5,42012084 <rtc_clk_cal_internal+0xd8>
42012078:	08072783          	lw	a5,128(a4)
4201207c:	0017f793          	andi	a5,a5,1
42012080:	fe0786e3          	beqz	a5,4201206c <rtc_clk_cal_internal+0xc0>
42012084:	6001f7b7          	lui	a5,0x6001f
42012088:	0687a683          	lw	a3,104(a5) # 6001f068 <GPIO+0x1b068>
4201208c:	00006637          	lui	a2,0x6
42012090:	00d49713          	slli	a4,s1,0xd
42012094:	00c77733          	and	a4,a4,a2
42012098:	ffffa637          	lui	a2,0xffffa
4201209c:	fff60613          	addi	a2,a2,-1 # ffff9fff <CONFIG_SYSTEM_WORKQUEUE_PRIORITY+0xffffa000>
420120a0:	00c6f6b3          	and	a3,a3,a2
420120a4:	00d76733          	or	a4,a4,a3
420120a8:	06e7a423          	sw	a4,104(a5)
420120ac:	0687a703          	lw	a4,104(a5)
420120b0:	fffff6b7          	lui	a3,0xfffff
420120b4:	fff68693          	addi	a3,a3,-1 # ffffefff <CONFIG_SYSTEM_WORKQUEUE_PRIORITY+0xfffff000>
420120b8:	00d77733          	and	a4,a4,a3
420120bc:	06e7a423          	sw	a4,104(a5)
420120c0:	0687a683          	lw	a3,104(a5)
420120c4:	7fff0637          	lui	a2,0x7fff0
420120c8:	01091713          	slli	a4,s2,0x10
420120cc:	00c77733          	and	a4,a4,a2
420120d0:	80010637          	lui	a2,0x80010
420120d4:	fff60613          	addi	a2,a2,-1 # 8000ffff <CONFIG_SYSTEM_WORKQUEUE_PRIORITY+0x80010000>
420120d8:	00c6f6b3          	and	a3,a3,a2
420120dc:	00d76733          	or	a4,a4,a3
420120e0:	06e7a423          	sw	a4,104(a5)
420120e4:	00200713          	li	a4,2
420120e8:	10e49e63          	bne	s1,a4,42012204 <rtc_clk_cal_internal+0x258>
420120ec:	0807a703          	lw	a4,128(a5)
420120f0:	01391693          	slli	a3,s2,0x13
420120f4:	00008637          	lui	a2,0x8
420120f8:	07f77713          	andi	a4,a4,127
420120fc:	00d76733          	or	a4,a4,a3
42012100:	08e7a023          	sw	a4,128(a5)
42012104:	6001f7b7          	lui	a5,0x6001f
42012108:	0687a703          	lw	a4,104(a5) # 6001f068 <GPIO+0x1b068>
4201210c:	800006b7          	lui	a3,0x80000
42012110:	000f4537          	lui	a0,0xf4
42012114:	fff6c593          	not	a1,a3
42012118:	24050513          	addi	a0,a0,576 # f4240 <_image_irom_size+0xefb1c>
4201211c:	00b77733          	and	a4,a4,a1
42012120:	02a935b3          	mulhu	a1,s2,a0
42012124:	06e7a423          	sw	a4,104(a5)
42012128:	0687a703          	lw	a4,104(a5)
4201212c:	00d76733          	or	a4,a4,a3
42012130:	06e7a423          	sw	a4,104(a5)
42012134:	00000693          	li	a3,0
42012138:	02a90533          	mul	a0,s2,a0
4201213c:	fdfee097          	auipc	ra,0xfdfee
42012140:	770080e7          	jalr	1904(ra) # 400008ac <__udivdi3>
42012144:	fdfee097          	auipc	ra,0xfdfee
42012148:	f0c080e7          	jalr	-244(ra) # 40000050 <esp_rom_delay_us>
4201214c:	6001f737          	lui	a4,0x6001f
42012150:	000086b7          	lui	a3,0x8
42012154:	06872503          	lw	a0,104(a4) # 6001f068 <GPIO+0x1b068>
42012158:	00d57533          	and	a0,a0,a3
4201215c:	0e050863          	beqz	a0,4201224c <rtc_clk_cal_internal+0x2a0>
42012160:	06c72503          	lw	a0,108(a4)
42012164:	00755513          	srli	a0,a0,0x7
42012168:	6001f737          	lui	a4,0x6001f
4201216c:	06872783          	lw	a5,104(a4) # 6001f068 <GPIO+0x1b068>
42012170:	00841413          	slli	s0,s0,0x8
42012174:	00179793          	slli	a5,a5,0x1
42012178:	0017d793          	srli	a5,a5,0x1
4201217c:	06f72423          	sw	a5,104(a4)
42012180:	60008737          	lui	a4,0x60008
42012184:	07072783          	lw	a5,112(a4) # 60008070 <GPIO+0x4070>
42012188:	eff7f793          	andi	a5,a5,-257
4201218c:	0087e7b3          	or	a5,a5,s0
42012190:	06f72823          	sw	a5,112(a4)
42012194:	00100793          	li	a5,1
42012198:	00f49863          	bne	s1,a5,420121a8 <rtc_clk_cal_internal+0x1fc>
4201219c:	07072783          	lw	a5,112(a4)
420121a0:	dff7f793          	andi	a5,a5,-513
420121a4:	06f72823          	sw	a5,112(a4)
420121a8:	00c12083          	lw	ra,12(sp)
420121ac:	00812403          	lw	s0,8(sp)
420121b0:	00412483          	lw	s1,4(sp)
420121b4:	00012903          	lw	s2,0(sp)
420121b8:	01010113          	addi	sp,sp,16
420121bc:	00008067          	ret
420121c0:	600087b7          	lui	a5,0x60008
420121c4:	0707a403          	lw	s0,112(a5) # 60008070 <GPIO+0x4070>
420121c8:	00000493          	li	s1,0
420121cc:	00845413          	srli	s0,s0,0x8
420121d0:	00147413          	andi	s0,s0,1
420121d4:	e71ff06f          	j	42012044 <rtc_clk_cal_internal+0x98>
420121d8:	00300793          	li	a5,3
420121dc:	fef502e3          	beq	a0,a5,420121c0 <rtc_clk_cal_internal+0x214>
420121e0:	600087b7          	lui	a5,0x60008
420121e4:	0707a403          	lw	s0,112(a5) # 60008070 <GPIO+0x4070>
420121e8:	00200793          	li	a5,2
420121ec:	00845413          	srli	s0,s0,0x8
420121f0:	00147413          	andi	s0,s0,1
420121f4:	def50ae3          	beq	a0,a5,42011fe8 <rtc_clk_cal_internal+0x3c>
420121f8:	00100793          	li	a5,1
420121fc:	e2f500e3          	beq	a0,a5,4201201c <rtc_clk_cal_internal+0x70>
42012200:	e45ff06f          	j	42012044 <rtc_clk_cal_internal+0x98>
42012204:	00100713          	li	a4,1
42012208:	02e49263          	bne	s1,a4,4201222c <rtc_clk_cal_internal+0x280>
4201220c:	0807a703          	lw	a4,128(a5)
42012210:	01391693          	slli	a3,s2,0x13
42012214:	00008637          	lui	a2,0x8
42012218:	07f77713          	andi	a4,a4,127
4201221c:	00d76733          	or	a4,a4,a3
42012220:	08e7a023          	sw	a4,128(a5)
42012224:	1b360613          	addi	a2,a2,435 # 81b3 <_image_irom_size+0x3a8f>
42012228:	eddff06f          	j	42012104 <rtc_clk_cal_internal+0x158>
4201222c:	0807a703          	lw	a4,128(a5)
42012230:	01191693          	slli	a3,s2,0x11
42012234:	00025637          	lui	a2,0x25
42012238:	07f77713          	andi	a4,a4,127
4201223c:	00d76733          	or	a4,a4,a3
42012240:	08e7a023          	sw	a4,128(a5)
42012244:	9f060613          	addi	a2,a2,-1552 # 249f0 <_image_irom_size+0x202cc>
42012248:	ebdff06f          	j	42012104 <rtc_clk_cal_internal+0x158>
4201224c:	08072783          	lw	a5,128(a4)
42012250:	0017f793          	andi	a5,a5,1
42012254:	f00780e3          	beqz	a5,42012154 <rtc_clk_cal_internal+0x1a8>
42012258:	f11ff06f          	j	42012168 <rtc_clk_cal_internal+0x1bc>

4201225c <rtc_clk_cal>:
4201225c:	ff010113          	addi	sp,sp,-16
42012260:	00112623          	sw	ra,12(sp)
42012264:	00812423          	sw	s0,8(sp)
42012268:	00912223          	sw	s1,4(sp)
4201226c:	01212023          	sw	s2,0(sp)
42012270:	00058493          	mv	s1,a1
42012274:	00050913          	mv	s2,a0
42012278:	e89fe0ef          	jal	ra,42011100 <rtc_clk_xtal_freq_get>
4201227c:	00050413          	mv	s0,a0
42012280:	00048593          	mv	a1,s1
42012284:	00090513          	mv	a0,s2
42012288:	d25ff0ef          	jal	ra,42011fac <rtc_clk_cal_internal>
4201228c:	029436b3          	mulhu	a3,s0,s1
42012290:	00d55793          	srli	a5,a0,0xd
42012294:	01351513          	slli	a0,a0,0x13
42012298:	fff50593          	addi	a1,a0,-1
4201229c:	00153513          	seqz	a0,a0
420122a0:	40a787b3          	sub	a5,a5,a0
420122a4:	02940633          	mul	a2,s0,s1
420122a8:	01f69713          	slli	a4,a3,0x1f
420122ac:	00165513          	srli	a0,a2,0x1
420122b0:	00a76533          	or	a0,a4,a0
420122b4:	00a58533          	add	a0,a1,a0
420122b8:	0016d713          	srli	a4,a3,0x1
420122bc:	00b535b3          	sltu	a1,a0,a1
420122c0:	00e787b3          	add	a5,a5,a4
420122c4:	00f585b3          	add	a1,a1,a5
420122c8:	fdfee097          	auipc	ra,0xfdfee
420122cc:	5e4080e7          	jalr	1508(ra) # 400008ac <__udivdi3>
420122d0:	00c12083          	lw	ra,12(sp)
420122d4:	00812403          	lw	s0,8(sp)
420122d8:	00412483          	lw	s1,4(sp)
420122dc:	00012903          	lw	s2,0(sp)
420122e0:	01010113          	addi	sp,sp,16
420122e4:	00008067          	ret

420122e8 <rtc_time_us_to_slowclk>:
420122e8:	00d55793          	srli	a5,a0,0xd
420122ec:	01359593          	slli	a1,a1,0x13
420122f0:	ff010113          	addi	sp,sp,-16
420122f4:	00000693          	li	a3,0
420122f8:	01351513          	slli	a0,a0,0x13
420122fc:	00b7e5b3          	or	a1,a5,a1
42012300:	00112623          	sw	ra,12(sp)
42012304:	fdfee097          	auipc	ra,0xfdfee
42012308:	5a8080e7          	jalr	1448(ra) # 400008ac <__udivdi3>
4201230c:	00c12083          	lw	ra,12(sp)
42012310:	01010113          	addi	sp,sp,16
42012314:	00008067          	ret

42012318 <rtc_time_get>:
42012318:	600087b7          	lui	a5,0x60008
4201231c:	00c7a703          	lw	a4,12(a5) # 6000800c <GPIO+0x400c>
42012320:	800006b7          	lui	a3,0x80000
42012324:	00d76733          	or	a4,a4,a3
42012328:	00e7a623          	sw	a4,12(a5)
4201232c:	0107a503          	lw	a0,16(a5)
42012330:	0147a583          	lw	a1,20(a5)
42012334:	00008067          	ret

42012338 <rtc_clk_init>:
42012338:	fc010113          	addi	sp,sp,-64
4201233c:	00b12623          	sw	a1,12(sp)
42012340:	02112e23          	sw	ra,60(sp)
42012344:	02812c23          	sw	s0,56(sp)
42012348:	02912a23          	sw	s1,52(sp)
4201234c:	60008737          	lui	a4,0x60008
42012350:	00a12423          	sw	a0,8(sp)
42012354:	08072683          	lw	a3,128(a4) # 60008080 <GPIO+0x4080>
42012358:	00c14783          	lbu	a5,12(sp)
4201235c:	ffc04637          	lui	a2,0xffc04
42012360:	fff60613          	addi	a2,a2,-1 # ffc03fff <CONFIG_SYSTEM_WORKQUEUE_PRIORITY+0xffc04000>
42012364:	00c6f6b3          	and	a3,a3,a2
42012368:	00e79793          	slli	a5,a5,0xe
4201236c:	00d7e7b3          	or	a5,a5,a3
42012370:	08f72023          	sw	a5,128(a4)
42012374:	07072683          	lw	a3,112(a4)
42012378:	00d14783          	lbu	a5,13(sp)
4201237c:	fe020637          	lui	a2,0xfe020
42012380:	fff60613          	addi	a2,a2,-1 # fe01ffff <CONFIG_SYSTEM_WORKQUEUE_PRIORITY+0xfe020000>
42012384:	00c6f6b3          	and	a3,a3,a2
42012388:	01179793          	slli	a5,a5,0x11
4201238c:	00d7e7b3          	or	a5,a5,a3
42012390:	06f72823          	sw	a5,112(a4)
42012394:	00855413          	srli	s0,a0,0x8
42012398:	00812503          	lw	a0,8(sp)
4201239c:	3ff47413          	andi	s0,s0,1023
420123a0:	01555513          	srli	a0,a0,0x15
420123a4:	0ff57513          	zext.b	a0,a0
420123a8:	a10ff0ef          	jal	ra,420115b8 <rtc_clk_divider_set>
420123ac:	00812503          	lw	a0,8(sp)
420123b0:	01d55513          	srli	a0,a0,0x1d
420123b4:	a54ff0ef          	jal	ra,42011608 <rtc_clk_8m_divider_set>
420123b8:	6000e7b7          	lui	a5,0x6000e
420123bc:	0447a703          	lw	a4,68(a5) # 6000e044 <GPIO+0xa044>
420123c0:	000406b7          	lui	a3,0x40
420123c4:	f0068693          	addi	a3,a3,-256 # 3ff00 <_image_irom_size+0x3b7dc>
420123c8:	00d76733          	or	a4,a4,a3
420123cc:	04e7a223          	sw	a4,68(a5)
420123d0:	0447a703          	lw	a4,68(a5)
420123d4:	fffdc6b7          	lui	a3,0xfffdc
420123d8:	fff68693          	addi	a3,a3,-1 # fffdbfff <CONFIG_SYSTEM_WORKQUEUE_PRIORITY+0xfffdc000>
420123dc:	00d77733          	and	a4,a4,a3
420123e0:	04e7a223          	sw	a4,68(a5)
420123e4:	00814483          	lbu	s1,8(sp)
420123e8:	00000513          	li	a0,0
420123ec:	fdfee097          	auipc	ra,0xfdfee
420123f0:	c98080e7          	jalr	-872(ra) # 40000084 <esp_rom_uart_tx_wait_idle>
420123f4:	00048513          	mv	a0,s1
420123f8:	f99fe0ef          	jal	ra,42011390 <rtc_clk_xtal_freq_update>
420123fc:	000f4537          	lui	a0,0xf4
42012400:	24050513          	addi	a0,a0,576 # f4240 <_image_irom_size+0xefb1c>
42012404:	02a48533          	mul	a0,s1,a0
42012408:	fa5fe0ef          	jal	ra,420113ac <rtc_clk_apb_freq_update>
4201240c:	01010513          	addi	a0,sp,16
42012410:	e01fe0ef          	jal	ra,42011210 <rtc_clk_cpu_freq_get_config>
42012414:	02010593          	addi	a1,sp,32
42012418:	00040513          	mv	a0,s0
4201241c:	01c12483          	lw	s1,28(sp)
42012420:	d5dfe0ef          	jal	ra,4201117c <rtc_clk_cpu_freq_mhz_to_config>
42012424:	02051c63          	bnez	a0,4201245c <rtc_clk_init+0x124>
42012428:	3fc857b7          	lui	a5,0x3fc85
4201242c:	0447a783          	lw	a5,68(a5) # 3fc85044 <esp_log_default_level>
42012430:	02078463          	beqz	a5,42012458 <rtc_clk_init+0x120>
42012434:	fe36f097          	auipc	ra,0xfe36f
42012438:	610080e7          	jalr	1552(ra) # 40381a44 <esp_log_early_timestamp>
4201243c:	00050593          	mv	a1,a0
42012440:	3c000637          	lui	a2,0x3c000
42012444:	3c000537          	lui	a0,0x3c000
42012448:	24c60613          	addi	a2,a2,588 # 3c00024c <GPIO_PIN_MUX_REG+0x1f8>
4201244c:	25c50513          	addi	a0,a0,604 # 3c00025c <GPIO_PIN_MUX_REG+0x208>
42012450:	fdfee097          	auipc	ra,0xfdfee
42012454:	bf0080e7          	jalr	-1040(ra) # 40000040 <esp_rom_printf>
42012458:	5e9000ef          	jal	ra,42013240 <abort>
4201245c:	02010513          	addi	a0,sp,32
42012460:	fe9fe0ef          	jal	ra,42011448 <rtc_clk_cpu_freq_set_config>
42012464:	7e202573          	csrr	a0,0x7e2
42012468:	02a435b3          	mulhu	a1,s0,a0
4201246c:	00048613          	mv	a2,s1
42012470:	00000693          	li	a3,0
42012474:	02a40533          	mul	a0,s0,a0
42012478:	fdfee097          	auipc	ra,0xfdfee
4201247c:	434080e7          	jalr	1076(ra) # 400008ac <__udivdi3>
42012480:	7e251073          	csrw	0x7e2,a0
42012484:	00812783          	lw	a5,8(sp)
42012488:	fffc0737          	lui	a4,0xfffc0
4201248c:	0ff70713          	addi	a4,a4,255 # fffc00ff <CONFIG_SYSTEM_WORKQUEUE_PRIORITY+0xfffc0100>
42012490:	00e7f7b3          	and	a5,a5,a4
42012494:	00841413          	slli	s0,s0,0x8
42012498:	0087e433          	or	s0,a5,s0
4201249c:	001804b7          	lui	s1,0x180
420124a0:	00812423          	sw	s0,8(sp)
420124a4:	009474b3          	and	s1,s0,s1
420124a8:	000807b7          	lui	a5,0x80
420124ac:	00f49663          	bne	s1,a5,420124b8 <rtc_clk_init+0x180>
420124b0:	00100513          	li	a0,1
420124b4:	8a1fe0ef          	jal	ra,42010d54 <rtc_clk_32k_enable>
420124b8:	000407b7          	lui	a5,0x40
420124bc:	00f47433          	and	s0,s0,a5
420124c0:	00040c63          	beqz	s0,420124d8 <rtc_clk_init+0x1a0>
420124c4:	fff007b7          	lui	a5,0xfff00
420124c8:	00f485b3          	add	a1,s1,a5
420124cc:	0015b593          	seqz	a1,a1
420124d0:	00100513          	li	a0,1
420124d4:	8b1fe0ef          	jal	ra,42010d84 <rtc_clk_8m_enable>
420124d8:	00812503          	lw	a0,8(sp)
420124dc:	01255513          	srli	a0,a0,0x12
420124e0:	00157513          	andi	a0,a0,1
420124e4:	9cdfe0ef          	jal	ra,42010eb0 <rtc_clk_fast_freq_set>
420124e8:	00812503          	lw	a0,8(sp)
420124ec:	01355513          	srli	a0,a0,0x13
420124f0:	00357513          	andi	a0,a0,3
420124f4:	929fe0ef          	jal	ra,42010e1c <rtc_clk_slow_freq_set>
420124f8:	03c12083          	lw	ra,60(sp)
420124fc:	03812403          	lw	s0,56(sp)
42012500:	03412483          	lw	s1,52(sp)
42012504:	04010113          	addi	sp,sp,64
42012508:	00008067          	ret

4201250c <select_rtc_slow_clk>:
4201250c:	fe010113          	addi	sp,sp,-32
42012510:	01312623          	sw	s3,12(sp)
42012514:	00e4e9b7          	lui	s3,0xe4e
42012518:	00812c23          	sw	s0,24(sp)
4201251c:	00912a23          	sw	s1,20(sp)
42012520:	01212823          	sw	s2,16(sp)
42012524:	01412423          	sw	s4,8(sp)
42012528:	00112e23          	sw	ra,28(sp)
4201252c:	01512223          	sw	s5,4(sp)
42012530:	00050493          	mv	s1,a0
42012534:	00050913          	mv	s2,a0
42012538:	00300413          	li	s0,3
4201253c:	00100a13          	li	s4,1
42012540:	1bf98993          	addi	s3,s3,447 # e4e1bf <CONFIG_FLASH_SIZE+0xa4e1bf>
42012544:	07491863          	bne	s2,s4,420125b4 <select_rtc_slow_clk+0xa8>
42012548:	01449663          	bne	s1,s4,42012554 <select_rtc_slow_clk+0x48>
4201254c:	00100513          	li	a0,1
42012550:	805fe0ef          	jal	ra,42010d54 <rtc_clk_32k_enable>
42012554:	40000593          	li	a1,1024
42012558:	00200513          	li	a0,2
4201255c:	d01ff0ef          	jal	ra,4201225c <rtc_clk_cal>
42012560:	04a9ea63          	bltu	s3,a0,420125b4 <select_rtc_slow_clk+0xa8>
42012564:	fff40a93          	addi	s5,s0,-1
42012568:	02805a63          	blez	s0,4201259c <select_rtc_slow_clk+0x90>
4201256c:	02050463          	beqz	a0,42012594 <select_rtc_slow_clk+0x88>
42012570:	01812403          	lw	s0,24(sp)
42012574:	01c12083          	lw	ra,28(sp)
42012578:	01412483          	lw	s1,20(sp)
4201257c:	01012903          	lw	s2,16(sp)
42012580:	00c12983          	lw	s3,12(sp)
42012584:	00812a03          	lw	s4,8(sp)
42012588:	00412a83          	lw	s5,4(sp)
4201258c:	02010113          	addi	sp,sp,32
42012590:	e38fe06f          	j	42010bc8 <esp_clk_slowclk_cal_set>
42012594:	000a8413          	mv	s0,s5
42012598:	fb1ff06f          	j	42012548 <select_rtc_slow_clk+0x3c>
4201259c:	3fc857b7          	lui	a5,0x3fc85
420125a0:	0447a703          	lw	a4,68(a5) # 3fc85044 <esp_log_default_level>
420125a4:	00100793          	li	a5,1
420125a8:	02e7e463          	bltu	a5,a4,420125d0 <select_rtc_slow_clk+0xc4>
420125ac:	000a8413          	mv	s0,s5
420125b0:	00000913          	li	s2,0
420125b4:	00090513          	mv	a0,s2
420125b8:	865fe0ef          	jal	ra,42010e1c <rtc_clk_slow_freq_set>
420125bc:	40000593          	li	a1,1024
420125c0:	00000513          	li	a0,0
420125c4:	c99ff0ef          	jal	ra,4201225c <rtc_clk_cal>
420125c8:	f6050ee3          	beqz	a0,42012544 <select_rtc_slow_clk+0x38>
420125cc:	fa5ff06f          	j	42012570 <select_rtc_slow_clk+0x64>
420125d0:	fe36f097          	auipc	ra,0xfe36f
420125d4:	474080e7          	jalr	1140(ra) # 40381a44 <esp_log_early_timestamp>
420125d8:	00050593          	mv	a1,a0
420125dc:	3c000637          	lui	a2,0x3c000
420125e0:	3c000537          	lui	a0,0x3c000
420125e4:	0b060613          	addi	a2,a2,176 # 3c0000b0 <GPIO_PIN_MUX_REG+0x5c>
420125e8:	28450513          	addi	a0,a0,644 # 3c000284 <GPIO_PIN_MUX_REG+0x230>
420125ec:	fdfee097          	auipc	ra,0xfdfee
420125f0:	a54080e7          	jalr	-1452(ra) # 40000040 <esp_rom_printf>
420125f4:	fb9ff06f          	j	420125ac <select_rtc_slow_clk+0xa0>

420125f8 <esp_clk_init>:
420125f8:	fd010113          	addi	sp,sp,-48
420125fc:	00000513          	li	a0,0
42012600:	02112623          	sw	ra,44(sp)
42012604:	02812423          	sw	s0,40(sp)
42012608:	02912223          	sw	s1,36(sp)
4201260c:	fdfee097          	auipc	ra,0xfdfee
42012610:	a0c080e7          	jalr	-1524(ra) # 40000018 <esp_rom_get_reset_reason>
42012614:	3c000737          	lui	a4,0x3c000
42012618:	fff50793          	addi	a5,a0,-1
4201261c:	63872503          	lw	a0,1592(a4) # 3c000638 <__XT_EXCEPTION_DESCS_>
42012620:	c0000737          	lui	a4,0xc0000
42012624:	fff70713          	addi	a4,a4,-1 # bfffffff <CONFIG_SYSTEM_WORKQUEUE_PRIORITY+0xc0000000>
42012628:	0017b793          	seqz	a5,a5
4201262c:	01e79793          	slli	a5,a5,0x1e
42012630:	00e57533          	and	a0,a0,a4
42012634:	00f56533          	or	a0,a0,a5
42012638:	9e0ff0ef          	jal	ra,42011818 <rtc_init>
4201263c:	00100513          	li	a0,1
42012640:	871fe0ef          	jal	ra,42010eb0 <rtc_clk_fast_freq_set>
42012644:	00000513          	li	a0,0
42012648:	ec5ff0ef          	jal	ra,4201250c <select_rtc_slow_clk>
4201264c:	00010513          	mv	a0,sp
42012650:	bc1fe0ef          	jal	ra,42011210 <rtc_clk_cpu_freq_get_config>
42012654:	01010593          	addi	a1,sp,16
42012658:	0a000513          	li	a0,160
4201265c:	00c12483          	lw	s1,12(sp)
42012660:	b1dfe0ef          	jal	ra,4201117c <rtc_clk_cpu_freq_mhz_to_config>
42012664:	00050413          	mv	s0,a0
42012668:	00000513          	li	a0,0
4201266c:	fdfee097          	auipc	ra,0xfdfee
42012670:	a18080e7          	jalr	-1512(ra) # 40000084 <esp_rom_uart_tx_wait_idle>
42012674:	00040663          	beqz	s0,42012680 <esp_clk_init+0x88>
42012678:	01010513          	addi	a0,sp,16
4201267c:	dcdfe0ef          	jal	ra,42011448 <rtc_clk_cpu_freq_set_config>
42012680:	7e202573          	csrr	a0,0x7e2
42012684:	0a000793          	li	a5,160
42012688:	02f535b3          	mulhu	a1,a0,a5
4201268c:	00048613          	mv	a2,s1
42012690:	00000693          	li	a3,0
42012694:	02f50533          	mul	a0,a0,a5
42012698:	fdfee097          	auipc	ra,0xfdfee
4201269c:	214080e7          	jalr	532(ra) # 400008ac <__udivdi3>
420126a0:	7e251073          	csrw	0x7e2,a0
420126a4:	02c12083          	lw	ra,44(sp)
420126a8:	02812403          	lw	s0,40(sp)
420126ac:	02412483          	lw	s1,36(sp)
420126b0:	03010113          	addi	sp,sp,48
420126b4:	00008067          	ret

420126b8 <esp_timer_early_init>:
420126b8:	ff010113          	addi	sp,sp,-16
420126bc:	00112623          	sw	ra,12(sp)
420126c0:	b34fe0ef          	jal	ra,420109f4 <esp_timer_impl_early_init>
420126c4:	00c12083          	lw	ra,12(sp)
420126c8:	00000513          	li	a0,0
420126cc:	01010113          	addi	sp,sp,16
420126d0:	00008067          	ret

420126d4 <systimer_hal_init>:
420126d4:	600237b7          	lui	a5,0x60023
420126d8:	00078793          	mv	a5,a5
420126dc:	00f52023          	sw	a5,0(a0)
420126e0:	600c07b7          	lui	a5,0x600c0
420126e4:	0107a703          	lw	a4,16(a5) # 600c0010 <USB_SERIAL_JTAG+0x7d010>
420126e8:	200006b7          	lui	a3,0x20000
420126ec:	00d76733          	or	a4,a4,a3
420126f0:	00e7a823          	sw	a4,16(a5)
420126f4:	0187a703          	lw	a4,24(a5)
420126f8:	e00006b7          	lui	a3,0xe0000
420126fc:	fff68693          	addi	a3,a3,-1 # dfffffff <CONFIG_SYSTEM_WORKQUEUE_PRIORITY+0xe0000000>
42012700:	00d77733          	and	a4,a4,a3
42012704:	00e7ac23          	sw	a4,24(a5)
42012708:	00052703          	lw	a4,0(a0)
4201270c:	800006b7          	lui	a3,0x80000
42012710:	00072783          	lw	a5,0(a4)
42012714:	00d7e7b3          	or	a5,a5,a3
42012718:	00f72023          	sw	a5,0(a4)
4201271c:	00008067          	ret

42012720 <systimer_hal_get_counter_value>:
42012720:	00052783          	lw	a5,0(a0)
42012724:	00259713          	slli	a4,a1,0x2
42012728:	40000637          	lui	a2,0x40000
4201272c:	00e787b3          	add	a5,a5,a4
42012730:	0047a683          	lw	a3,4(a5)
42012734:	00c6e6b3          	or	a3,a3,a2
42012738:	00d7a223          	sw	a3,4(a5)
4201273c:	00052783          	lw	a5,0(a0)
42012740:	00e786b3          	add	a3,a5,a4
42012744:	0046a703          	lw	a4,4(a3) # 80000004 <CONFIG_SYSTEM_WORKQUEUE_PRIORITY+0x80000005>
42012748:	01d75713          	srli	a4,a4,0x1d
4201274c:	00177713          	andi	a4,a4,1
42012750:	fe070ae3          	beqz	a4,42012744 <systimer_hal_get_counter_value+0x24>
42012754:	00359693          	slli	a3,a1,0x3
42012758:	00d786b3          	add	a3,a5,a3
4201275c:	00858593          	addi	a1,a1,8
42012760:	0446a503          	lw	a0,68(a3)
42012764:	00359593          	slli	a1,a1,0x3
42012768:	00100737          	lui	a4,0x100
4201276c:	00b787b3          	add	a5,a5,a1
42012770:	fff70713          	addi	a4,a4,-1 # fffff <_image_irom_size+0xfb8db>
42012774:	0007a583          	lw	a1,0(a5)
42012778:	00050613          	mv	a2,a0
4201277c:	0446a503          	lw	a0,68(a3)
42012780:	00e5f5b3          	and	a1,a1,a4
42012784:	fea618e3          	bne	a2,a0,42012774 <systimer_hal_get_counter_value+0x54>
42012788:	00e5f5b3          	and	a1,a1,a4
4201278c:	00008067          	ret

42012790 <systimer_hal_enable_counter>:
42012790:	00052703          	lw	a4,0(a0)
42012794:	01e00793          	li	a5,30
42012798:	40b787b3          	sub	a5,a5,a1
4201279c:	00072683          	lw	a3,0(a4)
420127a0:	00100593          	li	a1,1
420127a4:	00f595b3          	sll	a1,a1,a5
420127a8:	00d5e5b3          	or	a1,a1,a3
420127ac:	00b72023          	sw	a1,0(a4)
420127b0:	00008067          	ret

420127b4 <systimer_hal_select_alarm_mode>:
420127b4:	00060863          	beqz	a2,420127c4 <systimer_hal_select_alarm_mode+0x10>
420127b8:	00100793          	li	a5,1
420127bc:	02f60863          	beq	a2,a5,420127ec <systimer_hal_select_alarm_mode+0x38>
420127c0:	00008067          	ret
420127c4:	00052783          	lw	a5,0(a0)
420127c8:	00c58593          	addi	a1,a1,12
420127cc:	00259593          	slli	a1,a1,0x2
420127d0:	00b787b3          	add	a5,a5,a1
420127d4:	0047a703          	lw	a4,4(a5)
420127d8:	c00006b7          	lui	a3,0xc0000
420127dc:	fff68693          	addi	a3,a3,-1 # bfffffff <CONFIG_SYSTEM_WORKQUEUE_PRIORITY+0xc0000000>
420127e0:	00d77733          	and	a4,a4,a3
420127e4:	00e7a223          	sw	a4,4(a5)
420127e8:	00008067          	ret
420127ec:	00052783          	lw	a5,0(a0)
420127f0:	00c58593          	addi	a1,a1,12
420127f4:	00259593          	slli	a1,a1,0x2
420127f8:	00b787b3          	add	a5,a5,a1
420127fc:	0047a703          	lw	a4,4(a5)
42012800:	400006b7          	lui	a3,0x40000
42012804:	00d76733          	or	a4,a4,a3
42012808:	fddff06f          	j	420127e4 <systimer_hal_select_alarm_mode+0x30>

4201280c <systimer_hal_connect_alarm_counter>:
4201280c:	00052703          	lw	a4,0(a0)
42012810:	00c58593          	addi	a1,a1,12
42012814:	00259593          	slli	a1,a1,0x2
42012818:	00b70733          	add	a4,a4,a1
4201281c:	00472783          	lw	a5,4(a4)
42012820:	01f61613          	slli	a2,a2,0x1f
42012824:	00179793          	slli	a5,a5,0x1
42012828:	0017d793          	srli	a5,a5,0x1
4201282c:	00c7e7b3          	or	a5,a5,a2
42012830:	00f72223          	sw	a5,4(a4)
42012834:	00008067          	ret

42012838 <systimer_hal_counter_can_stall_by_cpu>:
42012838:	00e00793          	li	a5,14
4201283c:	00052703          	lw	a4,0(a0)
42012840:	40b787b3          	sub	a5,a5,a1
42012844:	00179793          	slli	a5,a5,0x1
42012848:	40c787b3          	sub	a5,a5,a2
4201284c:	00100613          	li	a2,1
42012850:	00f61633          	sll	a2,a2,a5
42012854:	00072783          	lw	a5,0(a4)
42012858:	00068863          	beqz	a3,42012868 <systimer_hal_counter_can_stall_by_cpu+0x30>
4201285c:	00f66633          	or	a2,a2,a5
42012860:	00c72023          	sw	a2,0(a4)
42012864:	00008067          	ret
42012868:	fff64613          	not	a2,a2
4201286c:	00f67633          	and	a2,a2,a5
42012870:	ff1ff06f          	j	42012860 <systimer_hal_counter_can_stall_by_cpu+0x28>

42012874 <periph_ll_get_rst_en_mask>:
42012874:	01a00793          	li	a5,26
42012878:	0ca7e063          	bltu	a5,a0,42012938 <periph_ll_get_rst_en_mask+0xc4>
4201287c:	3c0007b7          	lui	a5,0x3c000
42012880:	2dc78793          	addi	a5,a5,732 # 3c0002dc <GPIO_PIN_MUX_REG+0x288>
42012884:	00251513          	slli	a0,a0,0x2
42012888:	00f50533          	add	a0,a0,a5
4201288c:	00052783          	lw	a5,0(a0)
42012890:	00078067          	jr	a5
42012894:	10000537          	lui	a0,0x10000
42012898:	00008067          	ret
4201289c:	20000513          	li	a0,512
420128a0:	00008067          	ret
420128a4:	00400513          	li	a0,4
420128a8:	00008067          	ret
420128ac:	00001537          	lui	a0,0x1
420128b0:	80050513          	addi	a0,a0,-2048 # 800 <CONFIG_ISR_STACK_SIZE>
420128b4:	00008067          	ret
420128b8:	02000513          	li	a0,32
420128bc:	00008067          	ret
420128c0:	08000513          	li	a0,128
420128c4:	00008067          	ret
420128c8:	00200537          	lui	a0,0x200
420128cc:	00008067          	ret
420128d0:	00002537          	lui	a0,0x2
420128d4:	00008067          	ret
420128d8:	00008537          	lui	a0,0x8
420128dc:	00008067          	ret
420128e0:	10000513          	li	a0,256
420128e4:	00008067          	ret
420128e8:	20000537          	lui	a0,0x20000
420128ec:	00008067          	ret
420128f0:	04000513          	li	a0,64
420128f4:	00008067          	ret
420128f8:	00080537          	lui	a0,0x80
420128fc:	00008067          	ret
42012900:	00200513          	li	a0,2
42012904:	04058063          	beqz	a1,42012944 <periph_ll_get_rst_en_mask+0xd0>
42012908:	01200513          	li	a0,18
4201290c:	00008067          	ret
42012910:	00400513          	li	a0,4
42012914:	02058863          	beqz	a1,42012944 <periph_ll_get_rst_en_mask+0xd0>
42012918:	03400513          	li	a0,52
4201291c:	00008067          	ret
42012920:	00800513          	li	a0,8
42012924:	02058063          	beqz	a1,42012944 <periph_ll_get_rst_en_mask+0xd0>
42012928:	01800513          	li	a0,24
4201292c:	00008067          	ret
42012930:	01000513          	li	a0,16
42012934:	00008067          	ret
42012938:	00000513          	li	a0,0
4201293c:	00008067          	ret
42012940:	00200513          	li	a0,2
42012944:	00008067          	ret

42012948 <periph_module_enable>:
42012948:	fe010113          	addi	sp,sp,-32
4201294c:	00912a23          	sw	s1,20(sp)
42012950:	00112e23          	sw	ra,28(sp)
42012954:	00812c23          	sw	s0,24(sp)
42012958:	01212823          	sw	s2,16(sp)
4201295c:	01312623          	sw	s3,12(sp)
42012960:	01412423          	sw	s4,8(sp)
42012964:	01512223          	sw	s5,4(sp)
42012968:	00050493          	mv	s1,a0
4201296c:	300479f3          	csrrci	s3,mstatus,8
42012970:	3fc837b7          	lui	a5,0x3fc83
42012974:	3fc83937          	lui	s2,0x3fc83
42012978:	c937a623          	sw	s3,-884(a5) # 3fc82c8c <periph_spinlock>
4201297c:	dc890793          	addi	a5,s2,-568 # 3fc82dc8 <ref_counts>
42012980:	00a787b3          	add	a5,a5,a0
42012984:	0007ca03          	lbu	s4,0(a5)
42012988:	dc890913          	addi	s2,s2,-568
4201298c:	0a0a1463          	bnez	s4,42012a34 <periph_module_enable+0xec>
42012990:	01200793          	li	a5,18
42012994:	02a7ec63          	bltu	a5,a0,420129cc <periph_module_enable+0x84>
42012998:	3c0007b7          	lui	a5,0x3c000
4201299c:	00c00713          	li	a4,12
420129a0:	34878793          	addi	a5,a5,840 # 3c000348 <CSWTCH.4>
420129a4:	00251613          	slli	a2,a0,0x2
420129a8:	0ca77263          	bgeu	a4,a0,42012a6c <periph_module_enable+0x124>
420129ac:	60026437          	lui	s0,0x60026
420129b0:	00c787b3          	add	a5,a5,a2
420129b4:	01442703          	lw	a4,20(s0) # 60026014 <SYSTIMER+0x3014>
420129b8:	0007a783          	lw	a5,0(a5)
420129bc:	00f767b3          	or	a5,a4,a5
420129c0:	00f42a23          	sw	a5,20(s0)
420129c4:	01840413          	addi	s0,s0,24
420129c8:	0500006f          	j	42012a18 <periph_module_enable+0xd0>
420129cc:	fed50793          	addi	a5,a0,-19 # 7ffed <_image_irom_size+0x7b8c9>
420129d0:	00500713          	li	a4,5
420129d4:	00f77e63          	bgeu	a4,a5,420129f0 <periph_module_enable+0xa8>
420129d8:	600c0737          	lui	a4,0x600c0
420129dc:	01072683          	lw	a3,16(a4) # 600c0010 <USB_SERIAL_JTAG+0x7d010>
420129e0:	01a00793          	li	a5,26
420129e4:	0aa7f463          	bgeu	a5,a0,42012a8c <periph_module_enable+0x144>
420129e8:	00d72823          	sw	a3,16(a4)
420129ec:	0980006f          	j	42012a84 <periph_module_enable+0x13c>
420129f0:	3c0007b7          	lui	a5,0x3c000
420129f4:	00251693          	slli	a3,a0,0x2
420129f8:	34878793          	addi	a5,a5,840 # 3c000348 <CSWTCH.4>
420129fc:	600c0437          	lui	s0,0x600c0
42012a00:	00d787b3          	add	a5,a5,a3
42012a04:	01442703          	lw	a4,20(s0) # 600c0014 <USB_SERIAL_JTAG+0x7d014>
42012a08:	0007a783          	lw	a5,0(a5)
42012a0c:	01c40413          	addi	s0,s0,28
42012a10:	00f767b3          	or	a5,a4,a5
42012a14:	fef42c23          	sw	a5,-8(s0)
42012a18:	00042a83          	lw	s5,0(s0)
42012a1c:	00100593          	li	a1,1
42012a20:	00048513          	mv	a0,s1
42012a24:	e51ff0ef          	jal	ra,42012874 <periph_ll_get_rst_en_mask>
42012a28:	fff54513          	not	a0,a0
42012a2c:	01557533          	and	a0,a0,s5
42012a30:	00a42023          	sw	a0,0(s0)
42012a34:	00990933          	add	s2,s2,s1
42012a38:	001a0713          	addi	a4,s4,1
42012a3c:	00e90023          	sb	a4,0(s2)
42012a40:	0089f793          	andi	a5,s3,8
42012a44:	3007a073          	csrs	mstatus,a5
42012a48:	01c12083          	lw	ra,28(sp)
42012a4c:	01812403          	lw	s0,24(sp)
42012a50:	01412483          	lw	s1,20(sp)
42012a54:	01012903          	lw	s2,16(sp)
42012a58:	00c12983          	lw	s3,12(sp)
42012a5c:	00812a03          	lw	s4,8(sp)
42012a60:	00412a83          	lw	s5,4(sp)
42012a64:	02010113          	addi	sp,sp,32
42012a68:	00008067          	ret
42012a6c:	600c06b7          	lui	a3,0x600c0
42012a70:	00c787b3          	add	a5,a5,a2
42012a74:	0106a703          	lw	a4,16(a3) # 600c0010 <USB_SERIAL_JTAG+0x7d010>
42012a78:	0007a783          	lw	a5,0(a5)
42012a7c:	00f767b3          	or	a5,a4,a5
42012a80:	00f6a823          	sw	a5,16(a3)
42012a84:	600c0437          	lui	s0,0x600c0
42012a88:	f3dff06f          	j	420129c4 <periph_module_enable+0x7c>
42012a8c:	3c0007b7          	lui	a5,0x3c000
42012a90:	00251613          	slli	a2,a0,0x2
42012a94:	34878793          	addi	a5,a5,840 # 3c000348 <CSWTCH.4>
42012a98:	00c787b3          	add	a5,a5,a2
42012a9c:	0007a783          	lw	a5,0(a5)
42012aa0:	00f6e6b3          	or	a3,a3,a5
42012aa4:	f45ff06f          	j	420129e8 <periph_module_enable+0xa0>

42012aa8 <periph_module_disable>:
42012aa8:	ff010113          	addi	sp,sp,-16
42012aac:	00112623          	sw	ra,12(sp)
42012ab0:	00812423          	sw	s0,8(sp)
42012ab4:	00912223          	sw	s1,4(sp)
42012ab8:	01212023          	sw	s2,0(sp)
42012abc:	300474f3          	csrrci	s1,mstatus,8
42012ac0:	3fc83737          	lui	a4,0x3fc83
42012ac4:	dc870713          	addi	a4,a4,-568 # 3fc82dc8 <ref_counts>
42012ac8:	3fc837b7          	lui	a5,0x3fc83
42012acc:	00a70733          	add	a4,a4,a0
42012ad0:	c897a623          	sw	s1,-884(a5) # 3fc82c8c <periph_spinlock>
42012ad4:	00074783          	lbu	a5,0(a4)
42012ad8:	fff78793          	addi	a5,a5,-1
42012adc:	0ff7f793          	zext.b	a5,a5
42012ae0:	00f70023          	sb	a5,0(a4)
42012ae4:	0a079663          	bnez	a5,42012b90 <periph_module_disable+0xe8>
42012ae8:	01200793          	li	a5,18
42012aec:	02a7ee63          	bltu	a5,a0,42012b28 <periph_module_disable+0x80>
42012af0:	3c0007b7          	lui	a5,0x3c000
42012af4:	00c00713          	li	a4,12
42012af8:	34878793          	addi	a5,a5,840 # 3c000348 <CSWTCH.4>
42012afc:	00251693          	slli	a3,a0,0x2
42012b00:	0aa77863          	bgeu	a4,a0,42012bb0 <periph_module_disable+0x108>
42012b04:	00d787b3          	add	a5,a5,a3
42012b08:	60026437          	lui	s0,0x60026
42012b0c:	0007a783          	lw	a5,0(a5)
42012b10:	01442703          	lw	a4,20(s0) # 60026014 <SYSTIMER+0x3014>
42012b14:	fff7c793          	not	a5,a5
42012b18:	00e7f7b3          	and	a5,a5,a4
42012b1c:	00f42a23          	sw	a5,20(s0)
42012b20:	01840413          	addi	s0,s0,24
42012b24:	0580006f          	j	42012b7c <periph_module_disable+0xd4>
42012b28:	fed50793          	addi	a5,a0,-19
42012b2c:	00500713          	li	a4,5
42012b30:	02f77063          	bgeu	a4,a5,42012b50 <periph_module_disable+0xa8>
42012b34:	600c0737          	lui	a4,0x600c0
42012b38:	01072603          	lw	a2,16(a4) # 600c0010 <USB_SERIAL_JTAG+0x7d010>
42012b3c:	01a00793          	li	a5,26
42012b40:	08a7f863          	bgeu	a5,a0,42012bd0 <periph_module_disable+0x128>
42012b44:	00c72823          	sw	a2,16(a4)
42012b48:	600c0437          	lui	s0,0x600c0
42012b4c:	fd5ff06f          	j	42012b20 <periph_module_disable+0x78>
42012b50:	3c0007b7          	lui	a5,0x3c000
42012b54:	00251713          	slli	a4,a0,0x2
42012b58:	34878793          	addi	a5,a5,840 # 3c000348 <CSWTCH.4>
42012b5c:	00e787b3          	add	a5,a5,a4
42012b60:	600c0437          	lui	s0,0x600c0
42012b64:	0007a783          	lw	a5,0(a5)
42012b68:	01442683          	lw	a3,20(s0) # 600c0014 <USB_SERIAL_JTAG+0x7d014>
42012b6c:	01c40413          	addi	s0,s0,28
42012b70:	fff7c793          	not	a5,a5
42012b74:	00d7f7b3          	and	a5,a5,a3
42012b78:	fef42c23          	sw	a5,-8(s0)
42012b7c:	00042903          	lw	s2,0(s0)
42012b80:	00000593          	li	a1,0
42012b84:	cf1ff0ef          	jal	ra,42012874 <periph_ll_get_rst_en_mask>
42012b88:	00a96933          	or	s2,s2,a0
42012b8c:	01242023          	sw	s2,0(s0)
42012b90:	0084f493          	andi	s1,s1,8
42012b94:	3004a073          	csrs	mstatus,s1
42012b98:	00c12083          	lw	ra,12(sp)
42012b9c:	00812403          	lw	s0,8(sp)
42012ba0:	00412483          	lw	s1,4(sp)
42012ba4:	00012903          	lw	s2,0(sp)
42012ba8:	01010113          	addi	sp,sp,16
42012bac:	00008067          	ret
42012bb0:	600c0737          	lui	a4,0x600c0
42012bb4:	01072603          	lw	a2,16(a4) # 600c0010 <USB_SERIAL_JTAG+0x7d010>
42012bb8:	00d787b3          	add	a5,a5,a3
42012bbc:	0007a783          	lw	a5,0(a5)
42012bc0:	fff7c793          	not	a5,a5
42012bc4:	00c7f7b3          	and	a5,a5,a2
42012bc8:	00f72823          	sw	a5,16(a4)
42012bcc:	f7dff06f          	j	42012b48 <periph_module_disable+0xa0>
42012bd0:	3c0007b7          	lui	a5,0x3c000
42012bd4:	00251693          	slli	a3,a0,0x2
42012bd8:	34878793          	addi	a5,a5,840 # 3c000348 <CSWTCH.4>
42012bdc:	fddff06f          	j	42012bb8 <periph_module_disable+0x110>

42012be0 <esp_efuse_get_chip_ver>:
42012be0:	8401a783          	lw	a5,-1984(gp) # 3fc85080 <ESP_EFUSE_WAFER_VERSION>
42012be4:	fe010113          	addi	sp,sp,-32
42012be8:	00112e23          	sw	ra,28(sp)
42012bec:	00012623          	sw	zero,12(sp)
42012bf0:	0027d603          	lhu	a2,2(a5)
42012bf4:	00c10593          	addi	a1,sp,12
42012bf8:	84018513          	addi	a0,gp,-1984 # 3fc85080 <ESP_EFUSE_WAFER_VERSION>
42012bfc:	014000ef          	jal	ra,42012c10 <esp_efuse_read_field_blob>
42012c00:	01c12083          	lw	ra,28(sp)
42012c04:	00c14503          	lbu	a0,12(sp)
42012c08:	02010113          	addi	sp,sp,32
42012c0c:	00008067          	ret

42012c10 <esp_efuse_read_field_blob>:
42012c10:	08050863          	beqz	a0,42012ca0 <esp_efuse_read_field_blob+0x90>
42012c14:	fe010113          	addi	sp,sp,-32
42012c18:	00812c23          	sw	s0,24(sp)
42012c1c:	01212823          	sw	s2,16(sp)
42012c20:	00112e23          	sw	ra,28(sp)
42012c24:	00912a23          	sw	s1,20(sp)
42012c28:	01312623          	sw	s3,12(sp)
42012c2c:	01412423          	sw	s4,8(sp)
42012c30:	00050913          	mv	s2,a0
42012c34:	00058413          	mv	s0,a1
42012c38:	10200513          	li	a0,258
42012c3c:	06058663          	beqz	a1,42012ca8 <esp_efuse_read_field_blob+0x98>
42012c40:	00060493          	mv	s1,a2
42012c44:	06060263          	beqz	a2,42012ca8 <esp_efuse_read_field_blob+0x98>
42012c48:	000019b7          	lui	s3,0x1
42012c4c:	42013a37          	lui	s4,0x42013
42012c50:	60698993          	addi	s3,s3,1542 # 1606 <CONFIG_HEAP_MEM_POOL_SIZE+0x606>
42012c54:	00800593          	li	a1,8
42012c58:	00048513          	mv	a0,s1
42012c5c:	280000ef          	jal	ra,42012edc <esp_efuse_utility_get_number_of_items>
42012c60:	00050613          	mv	a2,a0
42012c64:	00000593          	li	a1,0
42012c68:	00040513          	mv	a0,s0
42012c6c:	fe370097          	auipc	ra,0xfe370
42012c70:	f8c080e7          	jalr	-116(ra) # 40382bf8 <memset>
42012c74:	f14a0693          	addi	a3,s4,-236 # 42012f14 <esp_efuse_utility_fill_buff>
42012c78:	00048613          	mv	a2,s1
42012c7c:	00040593          	mv	a1,s0
42012c80:	00090513          	mv	a0,s2
42012c84:	070000ef          	jal	ra,42012cf4 <esp_efuse_utility_process>
42012c88:	03351063          	bne	a0,s3,42012ca8 <esp_efuse_read_field_blob+0x98>
42012c8c:	00000593          	li	a1,0
42012c90:	00100513          	li	a0,1
42012c94:	fe36e097          	auipc	ra,0xfe36e
42012c98:	6e8080e7          	jalr	1768(ra) # 4038137c <z_impl_k_sleep>
42012c9c:	fb9ff06f          	j	42012c54 <esp_efuse_read_field_blob+0x44>
42012ca0:	10200513          	li	a0,258
42012ca4:	00008067          	ret
42012ca8:	01c12083          	lw	ra,28(sp)
42012cac:	01812403          	lw	s0,24(sp)
42012cb0:	01412483          	lw	s1,20(sp)
42012cb4:	01012903          	lw	s2,16(sp)
42012cb8:	00c12983          	lw	s3,12(sp)
42012cbc:	00812a03          	lw	s4,8(sp)
42012cc0:	02010113          	addi	sp,sp,32
42012cc4:	00008067          	ret

42012cc8 <esp_efuse_get_field_size>:
42012cc8:	00050793          	mv	a5,a0
42012ccc:	00000513          	li	a0,0
42012cd0:	02078063          	beqz	a5,42012cf0 <esp_efuse_get_field_size+0x28>
42012cd4:	0007a703          	lw	a4,0(a5)
42012cd8:	00478793          	addi	a5,a5,4
42012cdc:	00071463          	bnez	a4,42012ce4 <esp_efuse_get_field_size+0x1c>
42012ce0:	00008067          	ret
42012ce4:	00275703          	lhu	a4,2(a4)
42012ce8:	00e50533          	add	a0,a0,a4
42012cec:	fe9ff06f          	j	42012cd4 <esp_efuse_get_field_size+0xc>
42012cf0:	00008067          	ret

42012cf4 <esp_efuse_utility_process>:
42012cf4:	fc010113          	addi	sp,sp,-64
42012cf8:	02812c23          	sw	s0,56(sp)
42012cfc:	02912a23          	sw	s1,52(sp)
42012d00:	03212823          	sw	s2,48(sp)
42012d04:	03312623          	sw	s3,44(sp)
42012d08:	03412423          	sw	s4,40(sp)
42012d0c:	02112e23          	sw	ra,60(sp)
42012d10:	03512223          	sw	s5,36(sp)
42012d14:	03612023          	sw	s6,32(sp)
42012d18:	01712e23          	sw	s7,28(sp)
42012d1c:	01812c23          	sw	s8,24(sp)
42012d20:	01912a23          	sw	s9,20(sp)
42012d24:	00050413          	mv	s0,a0
42012d28:	00058a13          	mv	s4,a1
42012d2c:	00060993          	mv	s3,a2
42012d30:	00068913          	mv	s2,a3
42012d34:	00012623          	sw	zero,12(sp)
42012d38:	f91ff0ef          	jal	ra,42012cc8 <esp_efuse_get_field_size>
42012d3c:	00050493          	mv	s1,a0
42012d40:	00098663          	beqz	s3,42012d4c <esp_efuse_utility_process+0x58>
42012d44:	00a9f463          	bgeu	s3,a0,42012d4c <esp_efuse_utility_process+0x58>
42012d48:	00098493          	mv	s1,s3
42012d4c:	3fc83ab7          	lui	s5,0x3fc83
42012d50:	c90aa983          	lw	s3,-880(s5) # 3fc82c90 <s_burn_counter>
42012d54:	10000b13          	li	s6,256
42012d58:	3fc85bb7          	lui	s7,0x3fc85
42012d5c:	02000c13          	li	s8,32
42012d60:	00c12783          	lw	a5,12(sp)
42012d64:	0097d663          	bge	a5,s1,42012d70 <esp_efuse_utility_process+0x7c>
42012d68:	00042783          	lw	a5,0(s0)
42012d6c:	00079663          	bnez	a5,42012d78 <esp_efuse_utility_process+0x84>
42012d70:	00000513          	li	a0,0
42012d74:	1000006f          	j	42012e74 <esp_efuse_utility_process+0x180>
42012d78:	0017c703          	lbu	a4,1(a5)
42012d7c:	0027d783          	lhu	a5,2(a5)
42012d80:	00000513          	li	a0,0
42012d84:	00f707b3          	add	a5,a4,a5
42012d88:	02fb5c63          	bge	s6,a5,42012dc0 <esp_efuse_utility_process+0xcc>
42012d8c:	044ba783          	lw	a5,68(s7) # 3fc85044 <esp_log_default_level>
42012d90:	02078463          	beqz	a5,42012db8 <esp_efuse_utility_process+0xc4>
42012d94:	fe36f097          	auipc	ra,0xfe36f
42012d98:	cb0080e7          	jalr	-848(ra) # 40381a44 <esp_log_early_timestamp>
42012d9c:	00050593          	mv	a1,a0
42012da0:	3c000637          	lui	a2,0x3c000
42012da4:	3c000537          	lui	a0,0x3c000
42012da8:	40c60613          	addi	a2,a2,1036 # 3c00040c <range_read_addr_blocks+0x58>
42012dac:	41450513          	addi	a0,a0,1044 # 3c000414 <range_read_addr_blocks+0x60>
42012db0:	fdfed097          	auipc	ra,0xfdfed
42012db4:	290080e7          	jalr	656(ra) # 40000040 <esp_rom_printf>
42012db8:	000017b7          	lui	a5,0x1
42012dbc:	60478513          	addi	a0,a5,1540 # 1604 <CONFIG_HEAP_MEM_POOL_SIZE+0x604>
42012dc0:	00000c93          	li	s9,0
42012dc4:	0a051463          	bnez	a0,42012e6c <esp_efuse_utility_process+0x178>
42012dc8:	00c12883          	lw	a7,12(sp)
42012dcc:	0a98d063          	bge	a7,s1,42012e6c <esp_efuse_utility_process+0x178>
42012dd0:	00042303          	lw	t1,0(s0)
42012dd4:	00134783          	lbu	a5,1(t1)
42012dd8:	00235703          	lhu	a4,2(t1)
42012ddc:	4057d813          	srai	a6,a5,0x5
42012de0:	00f70733          	add	a4,a4,a5
42012de4:	fff70713          	addi	a4,a4,-1
42012de8:	038746b3          	div	a3,a4,s8
42012dec:	01980833          	add	a6,a6,s9
42012df0:	0706ce63          	blt	a3,a6,42012e6c <esp_efuse_utility_process+0x178>
42012df4:	01f7f613          	andi	a2,a5,31
42012df8:	000c8463          	beqz	s9,42012e00 <esp_efuse_utility_process+0x10c>
42012dfc:	00000613          	li	a2,0
42012e00:	00000593          	li	a1,0
42012e04:	00000693          	li	a3,0
42012e08:	02f75263          	bge	a4,a5,42012e2c <esp_efuse_utility_process+0x138>
42012e0c:	00000693          	li	a3,0
42012e10:	00034583          	lbu	a1,0(t1)
42012e14:	00c10793          	addi	a5,sp,12
42012e18:	000a0713          	mv	a4,s4
42012e1c:	00080513          	mv	a0,a6
42012e20:	000900e7          	jalr	s2
42012e24:	001c8c93          	addi	s9,s9,1
42012e28:	f9dff06f          	j	42012dc4 <esp_efuse_utility_process+0xd0>
42012e2c:	00178e13          	addi	t3,a5,1
42012e30:	01fe7513          	andi	a0,t3,31
42012e34:	00168693          	addi	a3,a3,1
42012e38:	00050663          	beqz	a0,42012e44 <esp_efuse_utility_process+0x150>
42012e3c:	00058513          	mv	a0,a1
42012e40:	00e79863          	bne	a5,a4,42012e50 <esp_efuse_utility_process+0x15c>
42012e44:	00158513          	addi	a0,a1,1
42012e48:	00bc8a63          	beq	s9,a1,42012e5c <esp_efuse_utility_process+0x168>
42012e4c:	00000693          	li	a3,0
42012e50:	000e0793          	mv	a5,t3
42012e54:	00050593          	mv	a1,a0
42012e58:	fb1ff06f          	j	42012e08 <esp_efuse_utility_process+0x114>
42012e5c:	00d887b3          	add	a5,a7,a3
42012e60:	faf4d8e3          	bge	s1,a5,42012e10 <esp_efuse_utility_process+0x11c>
42012e64:	411486b3          	sub	a3,s1,a7
42012e68:	fa9ff06f          	j	42012e10 <esp_efuse_utility_process+0x11c>
42012e6c:	00440413          	addi	s0,s0,4
42012e70:	ee0508e3          	beqz	a0,42012d60 <esp_efuse_utility_process+0x6c>
42012e74:	c90aa703          	lw	a4,-880(s5)
42012e78:	02051863          	bnez	a0,42012ea8 <esp_efuse_utility_process+0x1b4>
42012e7c:	420137b7          	lui	a5,0x42013
42012e80:	f1478793          	addi	a5,a5,-236 # 42012f14 <esp_efuse_utility_fill_buff>
42012e84:	00f90863          	beq	s2,a5,42012e94 <esp_efuse_utility_process+0x1a0>
42012e88:	420137b7          	lui	a5,0x42013
42012e8c:	05478793          	addi	a5,a5,84 # 42013054 <esp_efuse_utility_count_once>
42012e90:	00f91c63          	bne	s2,a5,42012ea8 <esp_efuse_utility_process+0x1b4>
42012e94:	00e99663          	bne	s3,a4,42012ea0 <esp_efuse_utility_process+0x1ac>
42012e98:	0019f993          	andi	s3,s3,1
42012e9c:	00098663          	beqz	s3,42012ea8 <esp_efuse_utility_process+0x1b4>
42012ea0:	00001537          	lui	a0,0x1
42012ea4:	60650513          	addi	a0,a0,1542 # 1606 <CONFIG_HEAP_MEM_POOL_SIZE+0x606>
42012ea8:	03c12083          	lw	ra,60(sp)
42012eac:	03812403          	lw	s0,56(sp)
42012eb0:	03412483          	lw	s1,52(sp)
42012eb4:	03012903          	lw	s2,48(sp)
42012eb8:	02c12983          	lw	s3,44(sp)
42012ebc:	02812a03          	lw	s4,40(sp)
42012ec0:	02412a83          	lw	s5,36(sp)
42012ec4:	02012b03          	lw	s6,32(sp)
42012ec8:	01c12b83          	lw	s7,28(sp)
42012ecc:	01812c03          	lw	s8,24(sp)
42012ed0:	01412c83          	lw	s9,20(sp)
42012ed4:	04010113          	addi	sp,sp,64
42012ed8:	00008067          	ret

42012edc <esp_efuse_utility_get_number_of_items>:
42012edc:	02b567b3          	rem	a5,a0,a1
42012ee0:	02b54533          	div	a0,a0,a1
42012ee4:	00f027b3          	sgtz	a5,a5
42012ee8:	00a78533          	add	a0,a5,a0
42012eec:	00008067          	ret

42012ef0 <esp_efuse_utility_read_reg>:
42012ef0:	3c0007b7          	lui	a5,0x3c000
42012ef4:	00351513          	slli	a0,a0,0x3
42012ef8:	3b478793          	addi	a5,a5,948 # 3c0003b4 <range_read_addr_blocks>
42012efc:	00a787b3          	add	a5,a5,a0
42012f00:	0007a783          	lw	a5,0(a5)
42012f04:	00259593          	slli	a1,a1,0x2
42012f08:	00f585b3          	add	a1,a1,a5
42012f0c:	0005a503          	lw	a0,0(a1)
42012f10:	00008067          	ret

42012f14 <esp_efuse_utility_fill_buff>:
42012f14:	00050813          	mv	a6,a0
42012f18:	fe010113          	addi	sp,sp,-32
42012f1c:	00058513          	mv	a0,a1
42012f20:	00080593          	mv	a1,a6
42012f24:	00812c23          	sw	s0,24(sp)
42012f28:	01212823          	sw	s2,16(sp)
42012f2c:	01412423          	sw	s4,8(sp)
42012f30:	01512223          	sw	s5,4(sp)
42012f34:	00060a13          	mv	s4,a2
42012f38:	00070a93          	mv	s5,a4
42012f3c:	00078913          	mv	s2,a5
42012f40:	00112e23          	sw	ra,28(sp)
42012f44:	00912a23          	sw	s1,20(sp)
42012f48:	01312623          	sw	s3,12(sp)
42012f4c:	01612023          	sw	s6,0(sp)
42012f50:	00068413          	mv	s0,a3
42012f54:	f9dff0ef          	jal	ra,42012ef0 <esp_efuse_utility_read_reg>
42012f58:	02000713          	li	a4,32
42012f5c:	01455a33          	srl	s4,a0,s4
42012f60:	fff00793          	li	a5,-1
42012f64:	00e40863          	beq	s0,a4,42012f74 <esp_efuse_utility_fill_buff+0x60>
42012f68:	00100793          	li	a5,1
42012f6c:	008797b3          	sll	a5,a5,s0
42012f70:	fff78793          	addi	a5,a5,-1
42012f74:	00fa7a33          	and	s4,s4,a5
42012f78:	00092783          	lw	a5,0(s2)
42012f7c:	00800b13          	li	s6,8
42012f80:	0077f613          	andi	a2,a5,7
42012f84:	0367e4b3          	rem	s1,a5,s6
42012f88:	04060263          	beqz	a2,42012fcc <esp_efuse_utility_fill_buff+0xb8>
42012f8c:	000a0513          	mv	a0,s4
42012f90:	00000593          	li	a1,0
42012f94:	409b04b3          	sub	s1,s6,s1
42012f98:	0367c7b3          	div	a5,a5,s6
42012f9c:	00fa89b3          	add	s3,s5,a5
42012fa0:	fdfed097          	auipc	ra,0xfdfed
42012fa4:	7dc080e7          	jalr	2012(ra) # 4000077c <__ashldi3>
42012fa8:	0009c783          	lbu	a5,0(s3)
42012fac:	00a7e7b3          	or	a5,a5,a0
42012fb0:	00f98023          	sb	a5,0(s3)
42012fb4:	00945463          	bge	s0,s1,42012fbc <esp_efuse_utility_fill_buff+0xa8>
42012fb8:	00040493          	mv	s1,s0
42012fbc:	00092783          	lw	a5,0(s2)
42012fc0:	40940433          	sub	s0,s0,s1
42012fc4:	009787b3          	add	a5,a5,s1
42012fc8:	00f92023          	sw	a5,0(s2)
42012fcc:	00000993          	li	s3,0
42012fd0:	00800b13          	li	s6,8
42012fd4:	02804863          	bgtz	s0,42013004 <esp_efuse_utility_fill_buff+0xf0>
42012fd8:	01c12083          	lw	ra,28(sp)
42012fdc:	01812403          	lw	s0,24(sp)
42012fe0:	01412483          	lw	s1,20(sp)
42012fe4:	01012903          	lw	s2,16(sp)
42012fe8:	00c12983          	lw	s3,12(sp)
42012fec:	00812a03          	lw	s4,8(sp)
42012ff0:	00412a83          	lw	s5,4(sp)
42012ff4:	00012b03          	lw	s6,0(sp)
42012ff8:	00000513          	li	a0,0
42012ffc:	02010113          	addi	sp,sp,32
42013000:	00008067          	ret
42013004:	009989b3          	add	s3,s3,s1
42013008:	00092483          	lw	s1,0(s2)
4201300c:	00098613          	mv	a2,s3
42013010:	000a0513          	mv	a0,s4
42013014:	0364c4b3          	div	s1,s1,s6
42013018:	00000593          	li	a1,0
4201301c:	fdfee097          	auipc	ra,0xfdfee
42013020:	814080e7          	jalr	-2028(ra) # 40000830 <__lshrdi3>
42013024:	009a84b3          	add	s1,s5,s1
42013028:	0004c783          	lbu	a5,0(s1) # 180000 <_image_irom_size+0x17b8dc>
4201302c:	00a7e7b3          	or	a5,a5,a0
42013030:	00f48023          	sb	a5,0(s1)
42013034:	00040493          	mv	s1,s0
42013038:	008b5463          	bge	s6,s0,42013040 <esp_efuse_utility_fill_buff+0x12c>
4201303c:	00800493          	li	s1,8
42013040:	00092783          	lw	a5,0(s2)
42013044:	40940433          	sub	s0,s0,s1
42013048:	009787b3          	add	a5,a5,s1
4201304c:	00f92023          	sw	a5,0(s2)
42013050:	f85ff06f          	j	42012fd4 <esp_efuse_utility_fill_buff+0xc0>

42013054 <esp_efuse_utility_count_once>:
42013054:	00050813          	mv	a6,a0
42013058:	fe010113          	addi	sp,sp,-32
4201305c:	00058513          	mv	a0,a1
42013060:	00080593          	mv	a1,a6
42013064:	00812c23          	sw	s0,24(sp)
42013068:	00912a23          	sw	s1,20(sp)
4201306c:	01212823          	sw	s2,16(sp)
42013070:	01312623          	sw	s3,12(sp)
42013074:	00078493          	mv	s1,a5
42013078:	00112e23          	sw	ra,28(sp)
4201307c:	00060993          	mv	s3,a2
42013080:	00068413          	mv	s0,a3
42013084:	00070913          	mv	s2,a4
42013088:	e69ff0ef          	jal	ra,42012ef0 <esp_efuse_utility_read_reg>
4201308c:	02000793          	li	a5,32
42013090:	fff00593          	li	a1,-1
42013094:	00f40863          	beq	s0,a5,420130a4 <esp_efuse_utility_count_once+0x50>
42013098:	00100593          	li	a1,1
4201309c:	008595b3          	sll	a1,a1,s0
420130a0:	fff58593          	addi	a1,a1,-1
420130a4:	013595b3          	sll	a1,a1,s3
420130a8:	00a5f533          	and	a0,a1,a0
420130ac:	fdfed097          	auipc	ra,0xfdfed
420130b0:	7dc080e7          	jalr	2012(ra) # 40000888 <__popcountsi2>
420130b4:	00092783          	lw	a5,0(s2)
420130b8:	00a787b3          	add	a5,a5,a0
420130bc:	00f92023          	sw	a5,0(s2)
420130c0:	0004a783          	lw	a5,0(s1)
420130c4:	00000513          	li	a0,0
420130c8:	008787b3          	add	a5,a5,s0
420130cc:	00f4a023          	sw	a5,0(s1)
420130d0:	01c12083          	lw	ra,28(sp)
420130d4:	01812403          	lw	s0,24(sp)
420130d8:	01412483          	lw	s1,20(sp)
420130dc:	01012903          	lw	s2,16(sp)
420130e0:	00c12983          	lw	s3,12(sp)
420130e4:	02010113          	addi	sp,sp,32
420130e8:	00008067          	ret

420130ec <z_isr_install>:
420130ec:	3fc857b7          	lui	a5,0x3fc85
420130f0:	00351513          	slli	a0,a0,0x3
420130f4:	0d878793          	addi	a5,a5,216 # 3fc850d8 <_sw_isr_table>
420130f8:	00a787b3          	add	a5,a5,a0
420130fc:	00c7a023          	sw	a2,0(a5)
42013100:	00b7a223          	sw	a1,4(a5)
42013104:	00008067          	ret

42013108 <z_riscv_fatal_error>:
42013108:	ff010113          	addi	sp,sp,-16
4201310c:	00112623          	sw	ra,12(sp)
42013110:	fe36d097          	auipc	ra,0xfe36d
42013114:	470080e7          	jalr	1136(ra) # 40380580 <z_fatal_error>

42013118 <_Fault>:
42013118:	ff010113          	addi	sp,sp,-16
4201311c:	00112623          	sw	ra,12(sp)
42013120:	00050593          	mv	a1,a0
42013124:	342027f3          	csrr	a5,mcause
42013128:	343027f3          	csrr	a5,mtval
4201312c:	00000513          	li	a0,0
42013130:	fe36d097          	auipc	ra,0xfe36d
42013134:	450080e7          	jalr	1104(ra) # 40380580 <z_fatal_error>

42013138 <z_irq_spurious>:
42013138:	ff010113          	addi	sp,sp,-16
4201313c:	00112623          	sw	ra,12(sp)
42013140:	342027f3          	csrr	a5,mcause
42013144:	00000593          	li	a1,0
42013148:	00100513          	li	a0,1
4201314c:	fbdff0ef          	jal	ra,42013108 <z_riscv_fatal_error>

42013150 <arch_irq_connect_dynamic>:
42013150:	ff010113          	addi	sp,sp,-16
42013154:	00060593          	mv	a1,a2
42013158:	00068613          	mv	a2,a3
4201315c:	00812423          	sw	s0,8(sp)
42013160:	00112623          	sw	ra,12(sp)
42013164:	00050413          	mv	s0,a0
42013168:	f85ff0ef          	jal	ra,420130ec <z_isr_install>
4201316c:	00c12083          	lw	ra,12(sp)
42013170:	00040513          	mv	a0,s0
42013174:	00812403          	lw	s0,8(sp)
42013178:	01010113          	addi	sp,sp,16
4201317c:	00008067          	ret

42013180 <z_riscv_switch>:
42013180:	0215aa23          	sw	ra,52(a1)
42013184:	0285ac23          	sw	s0,56(a1)
42013188:	0295ae23          	sw	s1,60(a1)
4201318c:	0525a023          	sw	s2,64(a1)
42013190:	0535a223          	sw	s3,68(a1)
42013194:	0545a423          	sw	s4,72(a1)
42013198:	0555a623          	sw	s5,76(a1)
4201319c:	0565a823          	sw	s6,80(a1)
420131a0:	0575aa23          	sw	s7,84(a1)
420131a4:	0585ac23          	sw	s8,88(a1)
420131a8:	0595ae23          	sw	s9,92(a1)
420131ac:	07a5a023          	sw	s10,96(a1)
420131b0:	07b5a223          	sw	s11,100(a1)
420131b4:	0225a823          	sw	sp,48(a1)
420131b8:	06b5ae23          	sw	a1,124(a1)
420131bc:	03052103          	lw	sp,48(a0)
420131c0:	03452083          	lw	ra,52(a0)
420131c4:	03852403          	lw	s0,56(a0)
420131c8:	03c52483          	lw	s1,60(a0)
420131cc:	04052903          	lw	s2,64(a0)
420131d0:	04452983          	lw	s3,68(a0)
420131d4:	04852a03          	lw	s4,72(a0)
420131d8:	04c52a83          	lw	s5,76(a0)
420131dc:	05052b03          	lw	s6,80(a0)
420131e0:	05452b83          	lw	s7,84(a0)
420131e4:	05852c03          	lw	s8,88(a0)
420131e8:	05c52c83          	lw	s9,92(a0)
420131ec:	06052d03          	lw	s10,96(a0)
420131f0:	06452d83          	lw	s11,100(a0)
420131f4:	00008067          	ret

420131f8 <arch_new_thread>:
420131f8:	fb060613          	addi	a2,a2,-80
420131fc:	ff067613          	andi	a2,a2,-16
42013200:	02f62423          	sw	a5,40(a2)
42013204:	000027b7          	lui	a5,0x2
42013208:	88078793          	addi	a5,a5,-1920 # 1880 <CONFIG_HEAP_MEM_POOL_SIZE+0x880>
4201320c:	04f62223          	sw	a5,68(a2)
42013210:	420107b7          	lui	a5,0x42010
42013214:	10c78793          	addi	a5,a5,268 # 4201010c <z_thread_entry>
42013218:	04f62023          	sw	a5,64(a2)
4201321c:	403807b7          	lui	a5,0x40380
42013220:	02d62023          	sw	a3,32(a2)
42013224:	02e62223          	sw	a4,36(a2)
42013228:	03062623          	sw	a6,44(a2)
4201322c:	24c78793          	addi	a5,a5,588 # 4038024c <z_riscv_thread_start>
42013230:	02c52823          	sw	a2,48(a0)
42013234:	02f52a23          	sw	a5,52(a0)
42013238:	06a52e23          	sw	a0,124(a0)
4201323c:	00008067          	ret

42013240 <abort>:
42013240:	3c000537          	lui	a0,0x3c000
42013244:	ff010113          	addi	sp,sp,-16
42013248:	45050513          	addi	a0,a0,1104 # 3c000450 <range_read_addr_blocks+0x9c>
4201324c:	00112623          	sw	ra,12(sp)
42013250:	fe370097          	auipc	ra,0xfe370
42013254:	8b8080e7          	jalr	-1864(ra) # 40382b08 <printk>
42013258:	00400513          	li	a0,4
4201325c:	00000293          	li	t0,0
42013260:	00000073          	ecall
42013264:	00c12083          	lw	ra,12(sp)
42013268:	01010113          	addi	sp,sp,16
4201326c:	00008067          	ret

42013270 <_stdout_hook_default>:
42013270:	fff00513          	li	a0,-1
42013274:	00008067          	ret

42013278 <__stdout_hook_install>:
42013278:	84a1a423          	sw	a0,-1976(gp) # 3fc85088 <_stdout_hook>
4201327c:	00008067          	ret

42013280 <esp_intr_initialize>:
42013280:	ff010113          	addi	sp,sp,-16
42013284:	00812423          	sw	s0,8(sp)
42013288:	00912223          	sw	s1,4(sp)
4201328c:	00112623          	sw	ra,12(sp)
42013290:	00000413          	li	s0,0
42013294:	02000493          	li	s1,32
42013298:	00040513          	mv	a0,s0
4201329c:	00140413          	addi	s0,s0,1
420132a0:	a38fd0ef          	jal	ra,420104d8 <arch_irq_disable>
420132a4:	fe941ae3          	bne	s0,s1,42013298 <esp_intr_initialize+0x18>
420132a8:	00000413          	li	s0,0
420132ac:	03e00493          	li	s1,62
420132b0:	00040593          	mv	a1,s0
420132b4:	01f00613          	li	a2,31
420132b8:	00000513          	li	a0,0
420132bc:	00140413          	addi	s0,s0,1
420132c0:	fdfed097          	auipc	ra,0xfdfed
420132c4:	334080e7          	jalr	820(ra) # 400005f4 <esp_rom_intr_matrix_set>
420132c8:	fe9414e3          	bne	s0,s1,420132b0 <esp_intr_initialize+0x30>
420132cc:	00812403          	lw	s0,8(sp)
420132d0:	00c12083          	lw	ra,12(sp)
420132d4:	00412483          	lw	s1,4(sp)
420132d8:	00100513          	li	a0,1
420132dc:	01010113          	addi	sp,sp,16
420132e0:	fdfed317          	auipc	t1,0xfdfed
420132e4:	30430067          	jr	772(t1) # 400005e4 <esprv_intc_int_set_threshold>

420132e8 <esp_intr_alloc>:
420132e8:	0a060063          	beqz	a2,42013388 <esp_intr_alloc+0xa0>
420132ec:	ff010113          	addi	sp,sp,-16
420132f0:	00812423          	sw	s0,8(sp)
420132f4:	00112623          	sw	ra,12(sp)
420132f8:	00912223          	sw	s1,4(sp)
420132fc:	03d00713          	li	a4,61
42013300:	00050413          	mv	s0,a0
42013304:	fea00793          	li	a5,-22
42013308:	04a76663          	bltu	a4,a0,42013354 <esp_intr_alloc+0x6c>
4201330c:	300474f3          	csrrci	s1,mstatus,8
42013310:	00000713          	li	a4,0
42013314:	00f00593          	li	a1,15
42013318:	e39ff0ef          	jal	ra,42013150 <arch_irq_connect_dynamic>
4201331c:	3fc837b7          	lui	a5,0x3fc83
42013320:	01f00713          	li	a4,31
42013324:	c9478793          	addi	a5,a5,-876 # 3fc82c94 <esp_intr_enabled_mask>
42013328:	04874263          	blt	a4,s0,4201336c <esp_intr_alloc+0x84>
4201332c:	0007a703          	lw	a4,0(a5)
42013330:	00100693          	li	a3,1
42013334:	008696b3          	sll	a3,a3,s0
42013338:	00d76733          	or	a4,a4,a3
4201333c:	00e7a023          	sw	a4,0(a5)
42013340:	0084f493          	andi	s1,s1,8
42013344:	3004a073          	csrs	mstatus,s1
42013348:	00040513          	mv	a0,s0
4201334c:	988fd0ef          	jal	ra,420104d4 <arch_irq_enable>
42013350:	00000793          	li	a5,0
42013354:	00c12083          	lw	ra,12(sp)
42013358:	00812403          	lw	s0,8(sp)
4201335c:	00412483          	lw	s1,4(sp)
42013360:	00078513          	mv	a0,a5
42013364:	01010113          	addi	sp,sp,16
42013368:	00008067          	ret
4201336c:	fe040693          	addi	a3,s0,-32
42013370:	00100713          	li	a4,1
42013374:	00d71733          	sll	a4,a4,a3
42013378:	0047a683          	lw	a3,4(a5)
4201337c:	00d76733          	or	a4,a4,a3
42013380:	00e7a223          	sw	a4,4(a5)
42013384:	fbdff06f          	j	42013340 <esp_intr_alloc+0x58>
42013388:	fea00793          	li	a5,-22
4201338c:	00078513          	mv	a0,a5
42013390:	00008067          	ret

42013394 <esp_intr_disable>:
42013394:	03d00793          	li	a5,61
42013398:	08a7ec63          	bltu	a5,a0,42013430 <esp_intr_disable+0x9c>
4201339c:	ff010113          	addi	sp,sp,-16
420133a0:	00812423          	sw	s0,8(sp)
420133a4:	00112623          	sw	ra,12(sp)
420133a8:	00912223          	sw	s1,4(sp)
420133ac:	00050413          	mv	s0,a0
420133b0:	300474f3          	csrrci	s1,mstatus,8
420133b4:	01f00613          	li	a2,31
420133b8:	00050593          	mv	a1,a0
420133bc:	00000513          	li	a0,0
420133c0:	fdfed097          	auipc	ra,0xfdfed
420133c4:	234080e7          	jalr	564(ra) # 400005f4 <esp_rom_intr_matrix_set>
420133c8:	3fc83737          	lui	a4,0x3fc83
420133cc:	01f00793          	li	a5,31
420133d0:	c9470713          	addi	a4,a4,-876 # 3fc82c94 <esp_intr_enabled_mask>
420133d4:	0287ce63          	blt	a5,s0,42013410 <esp_intr_disable+0x7c>
420133d8:	00072683          	lw	a3,0(a4)
420133dc:	00100793          	li	a5,1
420133e0:	008797b3          	sll	a5,a5,s0
420133e4:	fff7c793          	not	a5,a5
420133e8:	00d7f7b3          	and	a5,a5,a3
420133ec:	00f72023          	sw	a5,0(a4)
420133f0:	0084f493          	andi	s1,s1,8
420133f4:	3004a073          	csrs	mstatus,s1
420133f8:	00c12083          	lw	ra,12(sp)
420133fc:	00812403          	lw	s0,8(sp)
42013400:	00412483          	lw	s1,4(sp)
42013404:	00000513          	li	a0,0
42013408:	01010113          	addi	sp,sp,16
4201340c:	00008067          	ret
42013410:	00472683          	lw	a3,4(a4)
42013414:	fe040413          	addi	s0,s0,-32
42013418:	00100793          	li	a5,1
4201341c:	008797b3          	sll	a5,a5,s0
42013420:	fff7c793          	not	a5,a5
42013424:	00d7f7b3          	and	a5,a5,a3
42013428:	00f72223          	sw	a5,4(a4)
4201342c:	fc5ff06f          	j	420133f0 <esp_intr_disable+0x5c>
42013430:	fea00513          	li	a0,-22
42013434:	00008067          	ret

42013438 <esp_intr_enable>:
42013438:	03d00793          	li	a5,61
4201343c:	0ea7ec63          	bltu	a5,a0,42013534 <esp_intr_enable+0xfc>
42013440:	fe010113          	addi	sp,sp,-32
42013444:	00812c23          	sw	s0,24(sp)
42013448:	00112e23          	sw	ra,28(sp)
4201344c:	00912a23          	sw	s1,20(sp)
42013450:	01212823          	sw	s2,16(sp)
42013454:	01312623          	sw	s3,12(sp)
42013458:	01412423          	sw	s4,8(sp)
4201345c:	00050413          	mv	s0,a0
42013460:	30047a73          	csrrci	s4,mstatus,8
42013464:	3fc834b7          	lui	s1,0x3fc83
42013468:	00100913          	li	s2,1
4201346c:	c9448493          	addi	s1,s1,-876 # 3fc82c94 <esp_intr_enabled_mask>
42013470:	08a96663          	bltu	s2,a0,420134fc <esp_intr_enable+0xc4>
42013474:	00050593          	mv	a1,a0
42013478:	00100613          	li	a2,1
4201347c:	00000513          	li	a0,0
42013480:	fdfed097          	auipc	ra,0xfdfed
42013484:	174080e7          	jalr	372(ra) # 400005f4 <esp_rom_intr_matrix_set>
42013488:	00100993          	li	s3,1
4201348c:	00100793          	li	a5,1
42013490:	00879733          	sll	a4,a5,s0
42013494:	0004a783          	lw	a5,0(s1)
42013498:	00e7e7b3          	or	a5,a5,a4
4201349c:	00f4a023          	sw	a5,0(s1)
420134a0:	00098513          	mv	a0,s3
420134a4:	00f00593          	li	a1,15
420134a8:	fdfed097          	auipc	ra,0xfdfed
420134ac:	138080e7          	jalr	312(ra) # 400005e0 <esprv_intc_int_set_priority>
420134b0:	00000593          	li	a1,0
420134b4:	00098513          	mv	a0,s3
420134b8:	fdfed097          	auipc	ra,0xfdfed
420134bc:	138080e7          	jalr	312(ra) # 400005f0 <esprv_intc_int_set_type>
420134c0:	00100513          	li	a0,1
420134c4:	01351533          	sll	a0,a0,s3
420134c8:	fdfed097          	auipc	ra,0xfdfed
420134cc:	120080e7          	jalr	288(ra) # 400005e8 <esprv_intc_int_enable>
420134d0:	008a7a13          	andi	s4,s4,8
420134d4:	300a2073          	csrs	mstatus,s4
420134d8:	01c12083          	lw	ra,28(sp)
420134dc:	01812403          	lw	s0,24(sp)
420134e0:	01412483          	lw	s1,20(sp)
420134e4:	01012903          	lw	s2,16(sp)
420134e8:	00c12983          	lw	s3,12(sp)
420134ec:	00812a03          	lw	s4,8(sp)
420134f0:	00000513          	li	a0,0
420134f4:	02010113          	addi	sp,sp,32
420134f8:	00008067          	ret
420134fc:	00155993          	srli	s3,a0,0x1
42013500:	00050593          	mv	a1,a0
42013504:	00098613          	mv	a2,s3
42013508:	00000513          	li	a0,0
4201350c:	fdfed097          	auipc	ra,0xfdfed
42013510:	0e8080e7          	jalr	232(ra) # 400005f4 <esp_rom_intr_matrix_set>
42013514:	01f00793          	li	a5,31
42013518:	f687dae3          	bge	a5,s0,4201348c <esp_intr_enable+0x54>
4201351c:	0044a783          	lw	a5,4(s1)
42013520:	fe040413          	addi	s0,s0,-32
42013524:	00891933          	sll	s2,s2,s0
42013528:	00f96933          	or	s2,s2,a5
4201352c:	0124a223          	sw	s2,4(s1)
42013530:	f71ff06f          	j	420134a0 <esp_intr_enable+0x68>
42013534:	fea00513          	li	a0,-22
42013538:	00008067          	ret

4201353c <esp_intr_get_enabled_intmask>:
4201353c:	3fc837b7          	lui	a5,0x3fc83
42013540:	c9478793          	addi	a5,a5,-876 # 3fc82c94 <esp_intr_enabled_mask>
42013544:	00051663          	bnez	a0,42013550 <esp_intr_get_enabled_intmask+0x14>
42013548:	0007a503          	lw	a0,0(a5)
4201354c:	00008067          	ret
42013550:	0047a503          	lw	a0,4(a5)
42013554:	00008067          	ret

42013558 <clock_control_esp32_async_on>:
42013558:	f7a00513          	li	a0,-134
4201355c:	00008067          	ret

42013560 <clock_control_esp32_get_status>:
42013560:	01200793          	li	a5,18
42013564:	02b7ee63          	bltu	a5,a1,420135a0 <clock_control_esp32_get_status+0x40>
42013568:	00c00793          	li	a5,12
4201356c:	06b7f063          	bgeu	a5,a1,420135cc <clock_control_esp32_get_status+0x6c>
42013570:	600267b7          	lui	a5,0x60026
42013574:	01478793          	addi	a5,a5,20 # 60026014 <SYSTIMER+0x3014>
42013578:	0007a503          	lw	a0,0(a5)
4201357c:	3c0007b7          	lui	a5,0x3c000
42013580:	00259593          	slli	a1,a1,0x2
42013584:	46c78793          	addi	a5,a5,1132 # 3c00046c <CSWTCH.6>
42013588:	00b787b3          	add	a5,a5,a1
4201358c:	0007a783          	lw	a5,0(a5)
42013590:	00f57533          	and	a0,a0,a5
42013594:	00a03533          	snez	a0,a0
42013598:	00150513          	addi	a0,a0,1
4201359c:	00008067          	ret
420135a0:	fed58793          	addi	a5,a1,-19
420135a4:	00500713          	li	a4,5
420135a8:	00f77e63          	bgeu	a4,a5,420135c4 <clock_control_esp32_get_status+0x64>
420135ac:	01a00793          	li	a5,26
420135b0:	00b7fe63          	bgeu	a5,a1,420135cc <clock_control_esp32_get_status+0x6c>
420135b4:	600c07b7          	lui	a5,0x600c0
420135b8:	0107a783          	lw	a5,16(a5) # 600c0010 <USB_SERIAL_JTAG+0x7d010>
420135bc:	00100513          	li	a0,1
420135c0:	00008067          	ret
420135c4:	600c07b7          	lui	a5,0x600c0
420135c8:	fadff06f          	j	42013574 <clock_control_esp32_get_status+0x14>
420135cc:	600c07b7          	lui	a5,0x600c0
420135d0:	01078793          	addi	a5,a5,16 # 600c0010 <USB_SERIAL_JTAG+0x7d010>
420135d4:	fa5ff06f          	j	42013578 <clock_control_esp32_get_status+0x18>

420135d8 <clock_control_esp32_get_rate>:
420135d8:	fe010113          	addi	sp,sp,-32
420135dc:	00010513          	mv	a0,sp
420135e0:	00812c23          	sw	s0,24(sp)
420135e4:	00112e23          	sw	ra,28(sp)
420135e8:	00060413          	mv	s0,a2
420135ec:	c25fd0ef          	jal	ra,42011210 <rtc_clk_cpu_freq_get_config>
420135f0:	00c12783          	lw	a5,12(sp)
420135f4:	00000513          	li	a0,0
420135f8:	00f42023          	sw	a5,0(s0)
420135fc:	01c12083          	lw	ra,28(sp)
42013600:	01812403          	lw	s0,24(sp)
42013604:	02010113          	addi	sp,sp,32
42013608:	00008067          	ret

4201360c <clock_control_esp32_off>:
4201360c:	ff010113          	addi	sp,sp,-16
42013610:	00058513          	mv	a0,a1
42013614:	00112623          	sw	ra,12(sp)
42013618:	c90ff0ef          	jal	ra,42012aa8 <periph_module_disable>
4201361c:	00c12083          	lw	ra,12(sp)
42013620:	00000513          	li	a0,0
42013624:	01010113          	addi	sp,sp,16
42013628:	00008067          	ret

4201362c <clock_control_esp32_on>:
4201362c:	ff010113          	addi	sp,sp,-16
42013630:	00058513          	mv	a0,a1
42013634:	00112623          	sw	ra,12(sp)
42013638:	b10ff0ef          	jal	ra,42012948 <periph_module_enable>
4201363c:	00c12083          	lw	ra,12(sp)
42013640:	00000513          	li	a0,0
42013644:	01010113          	addi	sp,sp,16
42013648:	00008067          	ret

4201364c <clock_control_esp32_init>:
4201364c:	fd010113          	addi	sp,sp,-48
42013650:	02112623          	sw	ra,44(sp)
42013654:	02812423          	sw	s0,40(sp)
42013658:	02912223          	sw	s1,36(sp)
4201365c:	03212023          	sw	s2,32(sp)
42013660:	00452483          	lw	s1,4(a0)
42013664:	f21fd0ef          	jal	ra,42011584 <rtc_clk_apb_freq_get>
42013668:	04c4b7b7          	lui	a5,0x4c4b
4201366c:	3ff78793          	addi	a5,a5,1023 # 4c4b3ff <CONFIG_SYS_CLOCK_HW_CYCLES_PER_SEC+0x3d08fff>
42013670:	20a7e663          	bltu	a5,a0,4201387c <clock_control_esp32_init+0x230>
42013674:	0084a783          	lw	a5,8(s1)
42013678:	3c000737          	lui	a4,0x3c000
4201367c:	65c70713          	addi	a4,a4,1628 # 3c00065c <xtal_freq>
42013680:	00e787b3          	add	a5,a5,a4
42013684:	0007c783          	lbu	a5,0(a5)
42013688:	00f10823          	sb	a5,16(sp)
4201368c:	0044a903          	lw	s2,4(s1)
42013690:	811fd0ef          	jal	ra,42010ea0 <rtc_clk_slow_freq_get>
42013694:	00050413          	mv	s0,a0
42013698:	84dfd0ef          	jal	ra,42010ee4 <rtc_clk_fast_freq_get>
4201369c:	000407b7          	lui	a5,0x40
420136a0:	01251513          	slli	a0,a0,0x12
420136a4:	00f57533          	and	a0,a0,a5
420136a8:	00891913          	slli	s2,s2,0x8
420136ac:	f0078793          	addi	a5,a5,-256 # 3ff00 <_image_irom_size+0x3b7dc>
420136b0:	00f97933          	and	s2,s2,a5
420136b4:	01341413          	slli	s0,s0,0x13
420136b8:	001807b7          	lui	a5,0x180
420136bc:	00f47433          	and	s0,s0,a5
420136c0:	01014783          	lbu	a5,16(sp)
420136c4:	01256533          	or	a0,a0,s2
420136c8:	00856533          	or	a0,a0,s0
420136cc:	00f56533          	or	a0,a0,a5
420136d0:	000067b7          	lui	a5,0x6
420136d4:	4ff78793          	addi	a5,a5,1279 # 64ff <_image_irom_size+0x1ddb>
420136d8:	00f11a23          	sh	a5,20(sp)
420136dc:	01412583          	lw	a1,20(sp)
420136e0:	00a12823          	sw	a0,16(sp)
420136e4:	c55fe0ef          	jal	ra,42012338 <rtc_clk_init>
420136e8:	00100513          	li	a0,1
420136ec:	fc4fd0ef          	jal	ra,42010eb0 <rtc_clk_fast_freq_set>
420136f0:	00010513          	mv	a0,sp
420136f4:	b1dfd0ef          	jal	ra,42011210 <rtc_clk_cpu_freq_get_config>
420136f8:	0044a403          	lw	s0,4(s1)
420136fc:	01010593          	addi	a1,sp,16
42013700:	00c12903          	lw	s2,12(sp)
42013704:	00040513          	mv	a0,s0
42013708:	a75fd0ef          	jal	ra,4201117c <rtc_clk_cpu_freq_mhz_to_config>
4201370c:	f7a00793          	li	a5,-134
42013710:	14050863          	beqz	a0,42013860 <clock_control_esp32_init+0x214>
42013714:	00000513          	li	a0,0
42013718:	fdfed097          	auipc	ra,0xfdfed
4201371c:	96c080e7          	jalr	-1684(ra) # 40000084 <esp_rom_uart_tx_wait_idle>
42013720:	00c4a783          	lw	a5,12(s1)
42013724:	0007c463          	bltz	a5,4201372c <clock_control_esp32_init+0xe0>
42013728:	00f12c23          	sw	a5,24(sp)
4201372c:	0004a783          	lw	a5,0(s1)
42013730:	0007c463          	bltz	a5,42013738 <clock_control_esp32_init+0xec>
42013734:	00f12823          	sw	a5,16(sp)
42013738:	01010513          	addi	a0,sp,16
4201373c:	d0dfd0ef          	jal	ra,42011448 <rtc_clk_cpu_freq_set_config>
42013740:	7e202573          	csrr	a0,0x7e2
42013744:	028535b3          	mulhu	a1,a0,s0
42013748:	00090613          	mv	a2,s2
4201374c:	00000693          	li	a3,0
42013750:	02850533          	mul	a0,a0,s0
42013754:	fdfed097          	auipc	ra,0xfdfed
42013758:	158080e7          	jalr	344(ra) # 400008ac <__udivdi3>
4201375c:	7e251073          	csrw	0x7e2,a0
42013760:	00000513          	li	a0,0
42013764:	fdfed097          	auipc	ra,0xfdfed
42013768:	8b4080e7          	jalr	-1868(ra) # 40000018 <esp_rom_get_reset_reason>
4201376c:	ff550713          	addi	a4,a0,-11
42013770:	00200793          	li	a5,2
42013774:	00e7f663          	bgeu	a5,a4,42013780 <clock_control_esp32_init+0x134>
42013778:	01100793          	li	a5,17
4201377c:	10f51c63          	bne	a0,a5,42013894 <clock_control_esp32_init+0x248>
42013780:	600c07b7          	lui	a5,0x600c0
42013784:	0107a703          	lw	a4,16(a5) # 600c0010 <USB_SERIAL_JTAG+0x7d010>
42013788:	0147a603          	lw	a2,20(a5)
4201378c:	600267b7          	lui	a5,0x60026
42013790:	0147a683          	lw	a3,20(a5) # 60026014 <SYSTIMER+0x3014>
42013794:	fff74713          	not	a4,a4
42013798:	fff64613          	not	a2,a2
4201379c:	fff6c693          	not	a3,a3
420137a0:	886517b7          	lui	a5,0x88651
420137a4:	3f078793          	addi	a5,a5,1008 # 886513f0 <CONFIG_SYSTEM_WORKQUEUE_PRIORITY+0x886513f1>
420137a8:	00f76733          	or	a4,a4,a5
420137ac:	600c07b7          	lui	a5,0x600c0
420137b0:	0107a503          	lw	a0,16(a5) # 600c0010 <USB_SERIAL_JTAG+0x7d010>
420137b4:	fff74593          	not	a1,a4
420137b8:	fff6c693          	not	a3,a3
420137bc:	00a5f5b3          	and	a1,a1,a0
420137c0:	00b7a823          	sw	a1,16(a5)
420137c4:	0187a583          	lw	a1,24(a5)
420137c8:	00d00513          	li	a0,13
420137cc:	00b76733          	or	a4,a4,a1
420137d0:	00e7ac23          	sw	a4,24(a5)
420137d4:	0147a703          	lw	a4,20(a5)
420137d8:	00e7aa23          	sw	a4,20(a5)
420137dc:	01c7a703          	lw	a4,28(a5)
420137e0:	00e7ae23          	sw	a4,28(a5)
420137e4:	0147a583          	lw	a1,20(a5)
420137e8:	fff64713          	not	a4,a2
420137ec:	00b77733          	and	a4,a4,a1
420137f0:	00e7aa23          	sw	a4,20(a5)
420137f4:	01c7a703          	lw	a4,28(a5)
420137f8:	00e66633          	or	a2,a2,a4
420137fc:	00c7ae23          	sw	a2,28(a5)
42013800:	60026737          	lui	a4,0x60026
42013804:	01472603          	lw	a2,20(a4) # 60026014 <SYSTIMER+0x3014>
42013808:	00c6f6b3          	and	a3,a3,a2
4201380c:	00d72a23          	sw	a3,20(a4)
42013810:	01472683          	lw	a3,20(a4)
42013814:	00fba637          	lui	a2,0xfba
42013818:	fcf60613          	addi	a2,a2,-49 # fb9fcf <CONFIG_SYS_CLOCK_HW_CYCLES_PER_SEC+0x77bcf>
4201381c:	00c6e6b3          	or	a3,a3,a2
42013820:	00d72a23          	sw	a3,20(a4)
42013824:	0207a703          	lw	a4,32(a5)
42013828:	fffff6b7          	lui	a3,0xfffff
4201382c:	00d77733          	and	a4,a4,a3
42013830:	02e7a023          	sw	a4,32(a5)
42013834:	0247a703          	lw	a4,36(a5)
42013838:	fe0006b7          	lui	a3,0xfe000
4201383c:	fff68693          	addi	a3,a3,-1 # fdffffff <CONFIG_SYSTEM_WORKQUEUE_PRIORITY+0xfe000000>
42013840:	00d77733          	and	a4,a4,a3
42013844:	02e7a223          	sw	a4,36(a5)
42013848:	0247a703          	lw	a4,36(a5)
4201384c:	010006b7          	lui	a3,0x1000
42013850:	00d76733          	or	a4,a4,a3
42013854:	02e7a223          	sw	a4,36(a5)
42013858:	8f0ff0ef          	jal	ra,42012948 <periph_module_enable>
4201385c:	00000793          	li	a5,0
42013860:	02c12083          	lw	ra,44(sp)
42013864:	02812403          	lw	s0,40(sp)
42013868:	02412483          	lw	s1,36(sp)
4201386c:	02012903          	lw	s2,32(sp)
42013870:	00078513          	mv	a0,a5
42013874:	03010113          	addi	sp,sp,48
42013878:	00008067          	ret
4201387c:	00000513          	li	a0,0
42013880:	fdfec097          	auipc	ra,0xfdfec
42013884:	798080e7          	jalr	1944(ra) # 40000018 <esp_rom_get_reset_reason>
42013888:	00c00793          	li	a5,12
4201388c:	def514e3          	bne	a0,a5,42013674 <clock_control_esp32_init+0x28>
42013890:	e59ff06f          	j	420136e8 <clock_control_esp32_init+0x9c>
42013894:	000016b7          	lui	a3,0x1
42013898:	88699737          	lui	a4,0x88699
4201389c:	02068693          	addi	a3,a3,32 # 1020 <CONFIG_HEAP_MEM_POOL_SIZE+0x20>
420138a0:	00e00613          	li	a2,14
420138a4:	bf870713          	addi	a4,a4,-1032 # 88698bf8 <CONFIG_SYSTEM_WORKQUEUE_PRIORITY+0x88698bf9>
420138a8:	ef9ff06f          	j	420137a0 <clock_control_esp32_init+0x154>

420138ac <uart_console_init>:
420138ac:	ff010113          	addi	sp,sp,-16
420138b0:	00112623          	sw	ra,12(sp)
420138b4:	00812423          	sw	s0,8(sp)
420138b8:	3c000537          	lui	a0,0x3c000
420138bc:	7b050513          	addi	a0,a0,1968 # 3c0007b0 <__device_dts_ord_43>
420138c0:	fe36d097          	auipc	ra,0xfe36d
420138c4:	c80080e7          	jalr	-896(ra) # 40380540 <z_device_is_ready>
420138c8:	fed00793          	li	a5,-19
420138cc:	00050e63          	beqz	a0,420138e8 <uart_console_init+0x3c>
420138d0:	40383437          	lui	s0,0x40383
420138d4:	b4440513          	addi	a0,s0,-1212 # 40382b44 <console_out>
420138d8:	9a1ff0ef          	jal	ra,42013278 <__stdout_hook_install>
420138dc:	b4440513          	addi	a0,s0,-1212
420138e0:	821fc0ef          	jal	ra,42010100 <__printk_hook_install>
420138e4:	00000793          	li	a5,0
420138e8:	00c12083          	lw	ra,12(sp)
420138ec:	00812403          	lw	s0,8(sp)
420138f0:	00078513          	mv	a0,a5
420138f4:	01010113          	addi	sp,sp,16
420138f8:	00008067          	ret

420138fc <gpio_esp32_port_get_raw>:
420138fc:	00452783          	lw	a5,4(a0)
42013900:	00c7a703          	lw	a4,12(a5)
42013904:	00071c63          	bnez	a4,4201391c <gpio_esp32_port_get_raw+0x20>
42013908:	0087a783          	lw	a5,8(a5)
4201390c:	03c7a783          	lw	a5,60(a5)
42013910:	00679793          	slli	a5,a5,0x6
42013914:	0067d793          	srli	a5,a5,0x6
42013918:	00f5a023          	sw	a5,0(a1)
4201391c:	00000513          	li	a0,0
42013920:	00008067          	ret

42013924 <gpio_esp32_port_set_masked_raw>:
42013924:	00452783          	lw	a5,4(a0)
42013928:	300476f3          	csrrci	a3,mstatus,8
4201392c:	00c7a703          	lw	a4,12(a5)
42013930:	02071e63          	bnez	a4,4201396c <gpio_esp32_port_set_masked_raw+0x48>
42013934:	0087a503          	lw	a0,8(a5)
42013938:	040007b7          	lui	a5,0x4000
4201393c:	fff78793          	addi	a5,a5,-1 # 3ffffff <CONFIG_SYS_CLOCK_HW_CYCLES_PER_SEC+0x30bdbff>
42013940:	00452703          	lw	a4,4(a0)
42013944:	00f77733          	and	a4,a4,a5
42013948:	00c74633          	xor	a2,a4,a2
4201394c:	00b67633          	and	a2,a2,a1
42013950:	00e64633          	xor	a2,a2,a4
42013954:	00f67633          	and	a2,a2,a5
42013958:	00452783          	lw	a5,4(a0)
4201395c:	fc000737          	lui	a4,0xfc000
42013960:	00e7f7b3          	and	a5,a5,a4
42013964:	00c7e7b3          	or	a5,a5,a2
42013968:	00f52223          	sw	a5,4(a0)
4201396c:	0086f793          	andi	a5,a3,8
42013970:	3007a073          	csrs	mstatus,a5
42013974:	00000513          	li	a0,0
42013978:	00008067          	ret

4201397c <gpio_esp32_port_set_bits_raw>:
4201397c:	00452783          	lw	a5,4(a0)
42013980:	00c7a703          	lw	a4,12(a5)
42013984:	00071663          	bnez	a4,42013990 <gpio_esp32_port_set_bits_raw+0x14>
42013988:	0087a783          	lw	a5,8(a5)
4201398c:	00b7a423          	sw	a1,8(a5)
42013990:	00000513          	li	a0,0
42013994:	00008067          	ret

42013998 <gpio_esp32_port_clear_bits_raw>:
42013998:	00452783          	lw	a5,4(a0)
4201399c:	00c7a703          	lw	a4,12(a5)
420139a0:	00071663          	bnez	a4,420139ac <gpio_esp32_port_clear_bits_raw+0x14>
420139a4:	0087a783          	lw	a5,8(a5)
420139a8:	00b7a623          	sw	a1,12(a5)
420139ac:	00000513          	li	a0,0
420139b0:	00008067          	ret

420139b4 <gpio_esp32_port_toggle_bits>:
420139b4:	00452783          	lw	a5,4(a0)
420139b8:	300476f3          	csrrci	a3,mstatus,8
420139bc:	00c7a703          	lw	a4,12(a5)
420139c0:	02071a63          	bnez	a4,420139f4 <gpio_esp32_port_toggle_bits+0x40>
420139c4:	0087a603          	lw	a2,8(a5)
420139c8:	04000737          	lui	a4,0x4000
420139cc:	fff70713          	addi	a4,a4,-1 # 3ffffff <CONFIG_SYS_CLOCK_HW_CYCLES_PER_SEC+0x30bdbff>
420139d0:	00462783          	lw	a5,4(a2)
420139d4:	00e7f7b3          	and	a5,a5,a4
420139d8:	00b7c5b3          	xor	a1,a5,a1
420139dc:	00462783          	lw	a5,4(a2)
420139e0:	00e5f5b3          	and	a1,a1,a4
420139e4:	fc000737          	lui	a4,0xfc000
420139e8:	00e7f7b3          	and	a5,a5,a4
420139ec:	00b7e7b3          	or	a5,a5,a1
420139f0:	00f62223          	sw	a5,4(a2)
420139f4:	0086f793          	andi	a5,a3,8
420139f8:	3007a073          	csrs	mstatus,a5
420139fc:	00000513          	li	a0,0
42013a00:	00008067          	ret

42013a04 <gpio_esp32_pin_interrupt_configure>:
42013a04:	00452803          	lw	a6,4(a0)
42013a08:	00100793          	li	a5,1
42013a0c:	00000713          	li	a4,0
42013a10:	00c82503          	lw	a0,12(a6)
42013a14:	00f51663          	bne	a0,a5,42013a20 <gpio_esp32_pin_interrupt_configure+0x1c>
42013a18:	0205b713          	sltiu	a4,a1,32
42013a1c:	00571713          	slli	a4,a4,0x5
42013a20:	002007b7          	lui	a5,0x200
42013a24:	0af60463          	beq	a2,a5,42013acc <gpio_esp32_pin_interrupt_configure+0xc8>
42013a28:	004007b7          	lui	a5,0x400
42013a2c:	00f61e63          	bne	a2,a5,42013a48 <gpio_esp32_pin_interrupt_configure+0x44>
42013a30:	020007b7          	lui	a5,0x2000
42013a34:	0af68063          	beq	a3,a5,42013ad4 <gpio_esp32_pin_interrupt_configure+0xd0>
42013a38:	040007b7          	lui	a5,0x4000
42013a3c:	0af68063          	beq	a3,a5,42013adc <gpio_esp32_pin_interrupt_configure+0xd8>
42013a40:	fea00513          	li	a0,-22
42013a44:	00008067          	ret
42013a48:	040007b7          	lui	a5,0x4000
42013a4c:	08f68c63          	beq	a3,a5,42013ae4 <gpio_esp32_pin_interrupt_configure+0xe0>
42013a50:	060007b7          	lui	a5,0x6000
42013a54:	08f68c63          	beq	a3,a5,42013aec <gpio_esp32_pin_interrupt_configure+0xe8>
42013a58:	020007b7          	lui	a5,0x2000
42013a5c:	fea00513          	li	a0,-22
42013a60:	06f69463          	bne	a3,a5,42013ac8 <gpio_esp32_pin_interrupt_configure+0xc4>
42013a64:	00200793          	li	a5,2
42013a68:	30047673          	csrrci	a2,mstatus,8
42013a6c:	00482683          	lw	a3,4(a6)
42013a70:	00e585b3          	add	a1,a1,a4
42013a74:	01c58593          	addi	a1,a1,28
42013a78:	00259593          	slli	a1,a1,0x2
42013a7c:	00b686b3          	add	a3,a3,a1
42013a80:	0046a703          	lw	a4,4(a3)
42013a84:	00779793          	slli	a5,a5,0x7
42013a88:	c7f77713          	andi	a4,a4,-897
42013a8c:	00f767b3          	or	a5,a4,a5
42013a90:	00f6a223          	sw	a5,4(a3)
42013a94:	600047b7          	lui	a5,0x60004
42013a98:	00078793          	mv	a5,a5
42013a9c:	00b787b3          	add	a5,a5,a1
42013aa0:	0047a703          	lw	a4,4(a5) # 60004004 <GPIO+0x4>
42013aa4:	fffc26b7          	lui	a3,0xfffc2
42013aa8:	fff68693          	addi	a3,a3,-1 # fffc1fff <CONFIG_SYSTEM_WORKQUEUE_PRIORITY+0xfffc2000>
42013aac:	00d77733          	and	a4,a4,a3
42013ab0:	000026b7          	lui	a3,0x2
42013ab4:	00d76733          	or	a4,a4,a3
42013ab8:	00e7a223          	sw	a4,4(a5)
42013abc:	00867793          	andi	a5,a2,8
42013ac0:	3007a073          	csrs	mstatus,a5
42013ac4:	00000513          	li	a0,0
42013ac8:	00008067          	ret
42013acc:	00000793          	li	a5,0
42013ad0:	f99ff06f          	j	42013a68 <gpio_esp32_pin_interrupt_configure+0x64>
42013ad4:	00400793          	li	a5,4
42013ad8:	f91ff06f          	j	42013a68 <gpio_esp32_pin_interrupt_configure+0x64>
42013adc:	00500793          	li	a5,5
42013ae0:	f89ff06f          	j	42013a68 <gpio_esp32_pin_interrupt_configure+0x64>
42013ae4:	00100793          	li	a5,1
42013ae8:	f81ff06f          	j	42013a68 <gpio_esp32_pin_interrupt_configure+0x64>
42013aec:	00300793          	li	a5,3
42013af0:	f79ff06f          	j	42013a68 <gpio_esp32_pin_interrupt_configure+0x64>

42013af4 <gpio_esp32_manage_callback>:
42013af4:	01052783          	lw	a5,16(a0)
42013af8:	0047a703          	lw	a4,4(a5)
42013afc:	06070663          	beqz	a4,42013b68 <gpio_esp32_manage_callback+0x74>
42013b00:	04b71e63          	bne	a4,a1,42013b5c <gpio_esp32_manage_callback+0x68>
42013b04:	0005a703          	lw	a4,0(a1)
42013b08:	0087a683          	lw	a3,8(a5)
42013b0c:	00e7a223          	sw	a4,4(a5)
42013b10:	00d59463          	bne	a1,a3,42013b18 <gpio_esp32_manage_callback+0x24>
42013b14:	00e7a423          	sw	a4,8(a5)
42013b18:	0005a023          	sw	zero,0(a1)
42013b1c:	00060e63          	beqz	a2,42013b38 <gpio_esp32_manage_callback+0x44>
42013b20:	0047a703          	lw	a4,4(a5)
42013b24:	00e5a023          	sw	a4,0(a1)
42013b28:	0087a703          	lw	a4,8(a5)
42013b2c:	00b7a223          	sw	a1,4(a5)
42013b30:	00071463          	bnez	a4,42013b38 <gpio_esp32_manage_callback+0x44>
42013b34:	00b7a423          	sw	a1,8(a5)
42013b38:	00000513          	li	a0,0
42013b3c:	00008067          	ret
42013b40:	00e59e63          	bne	a1,a4,42013b5c <gpio_esp32_manage_callback+0x68>
42013b44:	0005a703          	lw	a4,0(a1)
42013b48:	00e6a023          	sw	a4,0(a3) # 2000 <CONFIG_HEAP_MEM_POOL_SIZE+0x1000>
42013b4c:	0087a703          	lw	a4,8(a5)
42013b50:	fce594e3          	bne	a1,a4,42013b18 <gpio_esp32_manage_callback+0x24>
42013b54:	00d7a423          	sw	a3,8(a5)
42013b58:	fc1ff06f          	j	42013b18 <gpio_esp32_manage_callback+0x24>
42013b5c:	00070693          	mv	a3,a4
42013b60:	00072703          	lw	a4,0(a4) # fc000000 <CONFIG_SYSTEM_WORKQUEUE_PRIORITY+0xfc000001>
42013b64:	fc071ee3          	bnez	a4,42013b40 <gpio_esp32_manage_callback+0x4c>
42013b68:	fa061ce3          	bnez	a2,42013b20 <gpio_esp32_manage_callback+0x2c>
42013b6c:	fea00513          	li	a0,-22
42013b70:	00008067          	ret

42013b74 <gpio_esp32_get_pending_int>:
42013b74:	00452783          	lw	a5,4(a0)
42013b78:	00c7a703          	lw	a4,12(a5)
42013b7c:	00071c63          	bnez	a4,42013b94 <gpio_esp32_get_pending_int+0x20>
42013b80:	0047a783          	lw	a5,4(a5)
42013b84:	05c7a503          	lw	a0,92(a5)
42013b88:	00651513          	slli	a0,a0,0x6
42013b8c:	00655513          	srli	a0,a0,0x6
42013b90:	00008067          	ret
42013b94:	00000513          	li	a0,0
42013b98:	00008067          	ret

42013b9c <gpio_esp32_init>:
42013b9c:	ff010113          	addi	sp,sp,-16
42013ba0:	00812423          	sw	s0,8(sp)
42013ba4:	3fc83437          	lui	s0,0x3fc83
42013ba8:	cb044783          	lbu	a5,-848(s0) # 3fc82cb0 <isr_connected.0>
42013bac:	00112623          	sw	ra,12(sp)
42013bb0:	02079463          	bnez	a5,42013bd8 <gpio_esp32_init+0x3c>
42013bb4:	40380637          	lui	a2,0x40380
42013bb8:	00050693          	mv	a3,a0
42013bbc:	00000713          	li	a4,0
42013bc0:	48860613          	addi	a2,a2,1160 # 40380488 <gpio_esp32_isr>
42013bc4:	00000593          	li	a1,0
42013bc8:	01000513          	li	a0,16
42013bcc:	f1cff0ef          	jal	ra,420132e8 <esp_intr_alloc>
42013bd0:	00100793          	li	a5,1
42013bd4:	caf40823          	sb	a5,-848(s0)
42013bd8:	00c12083          	lw	ra,12(sp)
42013bdc:	00812403          	lw	s0,8(sp)
42013be0:	00000513          	li	a0,0
42013be4:	01010113          	addi	sp,sp,16
42013be8:	00008067          	ret

42013bec <gpio_esp32_config>:
42013bec:	fe010113          	addi	sp,sp,-32
42013bf0:	00912a23          	sw	s1,20(sp)
42013bf4:	00112e23          	sw	ra,28(sp)
42013bf8:	00812c23          	sw	s0,24(sp)
42013bfc:	01212823          	sw	s2,16(sp)
42013c00:	01312623          	sw	s3,12(sp)
42013c04:	01412423          	sw	s4,8(sp)
42013c08:	01512223          	sw	s5,4(sp)
42013c0c:	00452a03          	lw	s4,4(a0)
42013c10:	00100713          	li	a4,1
42013c14:	00058793          	mv	a5,a1
42013c18:	00ca2683          	lw	a3,12(s4)
42013c1c:	00060493          	mv	s1,a2
42013c20:	04e69c63          	bne	a3,a4,42013c78 <gpio_esp32_config+0x8c>
42013c24:	01f00713          	li	a4,31
42013c28:	04b76863          	bltu	a4,a1,42013c78 <gpio_esp32_config+0x8c>
42013c2c:	004007b7          	lui	a5,0x400
42013c30:	02058713          	addi	a4,a1,32
42013c34:	fff78793          	addi	a5,a5,-1 # 3fffff <_image_irom_size+0x3fb8db>
42013c38:	00e7d7b3          	srl	a5,a5,a4
42013c3c:	0017f793          	andi	a5,a5,1
42013c40:	fea00513          	li	a0,-22
42013c44:	00078863          	beqz	a5,42013c54 <gpio_esp32_config+0x68>
42013c48:	30047973          	csrrci	s2,mstatus,8
42013c4c:	00897913          	andi	s2,s2,8
42013c50:	30092073          	csrs	mstatus,s2
42013c54:	01c12083          	lw	ra,28(sp)
42013c58:	01812403          	lw	s0,24(sp)
42013c5c:	01412483          	lw	s1,20(sp)
42013c60:	01012903          	lw	s2,16(sp)
42013c64:	00c12983          	lw	s3,12(sp)
42013c68:	00812a03          	lw	s4,8(sp)
42013c6c:	00412a83          	lw	s5,4(sp)
42013c70:	02010113          	addi	sp,sp,32
42013c74:	00008067          	ret
42013c78:	00400737          	lui	a4,0x400
42013c7c:	fff70713          	addi	a4,a4,-1 # 3fffff <_image_irom_size+0x3fb8db>
42013c80:	00f75733          	srl	a4,a4,a5
42013c84:	00177713          	andi	a4,a4,1
42013c88:	fea00513          	li	a0,-22
42013c8c:	fc0704e3          	beqz	a4,42013c54 <gpio_esp32_config+0x68>
42013c90:	30047973          	csrrci	s2,mstatus,8
42013c94:	01500713          	li	a4,21
42013c98:	0ef76063          	bltu	a4,a5,42013d78 <gpio_esp32_config+0x18c>
42013c9c:	3c0006b7          	lui	a3,0x3c000
42013ca0:	05468713          	addi	a4,a3,84 # 3c000054 <GPIO_PIN_MUX_REG>
42013ca4:	00279513          	slli	a0,a5,0x2
42013ca8:	00a70733          	add	a4,a4,a0
42013cac:	00072603          	lw	a2,0(a4)
42013cb0:	9fff7737          	lui	a4,0x9fff7
42013cb4:	fb470713          	addi	a4,a4,-76 # 9fff6fb4 <CONFIG_SYSTEM_WORKQUEUE_PRIORITY+0x9fff6fb5>
42013cb8:	00e60733          	add	a4,a2,a4
42013cbc:	ffb77713          	andi	a4,a4,-5
42013cc0:	05468693          	addi	a3,a3,84
42013cc4:	00071e63          	bnez	a4,42013ce0 <gpio_esp32_config+0xf4>
42013cc8:	60043837          	lui	a6,0x60043
42013ccc:	01882703          	lw	a4,24(a6) # 60043018 <USB_SERIAL_JTAG+0x18>
42013cd0:	ffffc5b7          	lui	a1,0xffffc
42013cd4:	fff58593          	addi	a1,a1,-1 # ffffbfff <CONFIG_SYSTEM_WORKQUEUE_PRIORITY+0xffffc000>
42013cd8:	00b77733          	and	a4,a4,a1
42013cdc:	00e82c23          	sw	a4,24(a6)
42013ce0:	00062703          	lw	a4,0(a2)
42013ce4:	ffff95b7          	lui	a1,0xffff9
42013ce8:	fff58593          	addi	a1,a1,-1 # ffff8fff <CONFIG_SYSTEM_WORKQUEUE_PRIORITY+0xffff9000>
42013cec:	00b77733          	and	a4,a4,a1
42013cf0:	000015b7          	lui	a1,0x1
42013cf4:	00b76733          	or	a4,a4,a1
42013cf8:	00e62023          	sw	a4,0(a2)
42013cfc:	00a686b3          	add	a3,a3,a0
42013d00:	0104f713          	andi	a4,s1,16
42013d04:	0006a403          	lw	s0,0(a3)
42013d08:	06070c63          	beqz	a4,42013d80 <gpio_esp32_config+0x194>
42013d0c:	00042703          	lw	a4,0(s0)
42013d10:	10076713          	ori	a4,a4,256
42013d14:	00e42023          	sw	a4,0(s0)
42013d18:	0024f713          	andi	a4,s1,2
42013d1c:	06070863          	beqz	a4,42013d8c <gpio_esp32_config+0x1a0>
42013d20:	0044f713          	andi	a4,s1,4
42013d24:	f7a00513          	li	a0,-134
42013d28:	f20702e3          	beqz	a4,42013c4c <gpio_esp32_config+0x60>
42013d2c:	004a2703          	lw	a4,4(s4)
42013d30:	01c78693          	addi	a3,a5,28
42013d34:	00269693          	slli	a3,a3,0x2
42013d38:	00d70733          	add	a4,a4,a3
42013d3c:	00472683          	lw	a3,4(a4)
42013d40:	0046e693          	ori	a3,a3,4
42013d44:	00d72223          	sw	a3,4(a4)
42013d48:	0204f713          	andi	a4,s1,32
42013d4c:	04070e63          	beqz	a4,42013da8 <gpio_esp32_config+0x1bc>
42013d50:	00042703          	lw	a4,0(s0)
42013d54:	08076713          	ori	a4,a4,128
42013d58:	00e42023          	sw	a4,0(s0)
42013d5c:	00020737          	lui	a4,0x20
42013d60:	00e4f733          	and	a4,s1,a4
42013d64:	12070463          	beqz	a4,42013e8c <gpio_esp32_config+0x2a0>
42013d68:	6004f713          	andi	a4,s1,1536
42013d6c:	04070463          	beqz	a4,42013db4 <gpio_esp32_config+0x1c8>
42013d70:	60000693          	li	a3,1536
42013d74:	0ed70063          	beq	a4,a3,42013e54 <gpio_esp32_config+0x268>
42013d78:	fea00513          	li	a0,-22
42013d7c:	ed1ff06f          	j	42013c4c <gpio_esp32_config+0x60>
42013d80:	00042703          	lw	a4,0(s0)
42013d84:	eff77713          	andi	a4,a4,-257
42013d88:	f8dff06f          	j	42013d14 <gpio_esp32_config+0x128>
42013d8c:	004a2703          	lw	a4,4(s4)
42013d90:	01c78693          	addi	a3,a5,28
42013d94:	00269693          	slli	a3,a3,0x2
42013d98:	00d70733          	add	a4,a4,a3
42013d9c:	00472683          	lw	a3,4(a4) # 20004 <_image_irom_size+0x1b8e0>
42013da0:	ffb6f693          	andi	a3,a3,-5
42013da4:	fa1ff06f          	j	42013d44 <gpio_esp32_config+0x158>
42013da8:	00042703          	lw	a4,0(s0)
42013dac:	f7f77713          	andi	a4,a4,-129
42013db0:	fa9ff06f          	j	42013d58 <gpio_esp32_config+0x16c>
42013db4:	00042703          	lw	a4,0(s0)
42013db8:	fffff6b7          	lui	a3,0xfffff
42013dbc:	3ff68693          	addi	a3,a3,1023 # fffff3ff <CONFIG_SYSTEM_WORKQUEUE_PRIORITY+0xfffff400>
42013dc0:	00d77733          	and	a4,a4,a3
42013dc4:	000016b7          	lui	a3,0x1
42013dc8:	c0068693          	addi	a3,a3,-1024 # c00 <CONFIG_ISR_STACK_SIZE+0x400>
42013dcc:	00d76733          	or	a4,a4,a3
42013dd0:	600046b7          	lui	a3,0x60004
42013dd4:	00e42023          	sw	a4,0(s0)
42013dd8:	00068693          	mv	a3,a3
42013ddc:	0246a703          	lw	a4,36(a3) # 60004024 <GPIO+0x24>
42013de0:	04000993          	li	s3,64
42013de4:	00f999b3          	sll	s3,s3,a5
42013de8:	fc000ab7          	lui	s5,0xfc000
42013dec:	0069d993          	srli	s3,s3,0x6
42013df0:	01577733          	and	a4,a4,s5
42013df4:	01376733          	or	a4,a4,s3
42013df8:	02e6a223          	sw	a4,36(a3)
42013dfc:	00078513          	mv	a0,a5
42013e00:	00000693          	li	a3,0
42013e04:	00000613          	li	a2,0
42013e08:	08000593          	li	a1,128
42013e0c:	fdfec097          	auipc	ra,0xfdfec
42013e10:	798080e7          	jalr	1944(ra) # 400005a4 <esp_rom_gpio_matrix_out>
42013e14:	000807b7          	lui	a5,0x80
42013e18:	00f4f7b3          	and	a5,s1,a5
42013e1c:	04078663          	beqz	a5,42013e68 <gpio_esp32_config+0x27c>
42013e20:	004a2703          	lw	a4,4(s4)
42013e24:	00872783          	lw	a5,8(a4)
42013e28:	0157f7b3          	and	a5,a5,s5
42013e2c:	0137e7b3          	or	a5,a5,s3
42013e30:	00f72423          	sw	a5,8(a4)
42013e34:	000107b7          	lui	a5,0x10
42013e38:	00f4f4b3          	and	s1,s1,a5
42013e3c:	00042783          	lw	a5,0(s0)
42013e40:	08048863          	beqz	s1,42013ed0 <gpio_esp32_config+0x2e4>
42013e44:	2007e793          	ori	a5,a5,512
42013e48:	00f42023          	sw	a5,0(s0)
42013e4c:	00000513          	li	a0,0
42013e50:	dfdff06f          	j	42013c4c <gpio_esp32_config+0x60>
42013e54:	00042703          	lw	a4,0(s0)
42013e58:	fffff6b7          	lui	a3,0xfffff
42013e5c:	3ff68693          	addi	a3,a3,1023 # fffff3ff <CONFIG_SYSTEM_WORKQUEUE_PRIORITY+0xfffff400>
42013e60:	00d77733          	and	a4,a4,a3
42013e64:	f6dff06f          	j	42013dd0 <gpio_esp32_config+0x1e4>
42013e68:	000407b7          	lui	a5,0x40
42013e6c:	00f4f7b3          	and	a5,s1,a5
42013e70:	fc0782e3          	beqz	a5,42013e34 <gpio_esp32_config+0x248>
42013e74:	004a2703          	lw	a4,4(s4)
42013e78:	00c72783          	lw	a5,12(a4)
42013e7c:	0157f7b3          	and	a5,a5,s5
42013e80:	0137e7b3          	or	a5,a5,s3
42013e84:	00f72623          	sw	a5,12(a4)
42013e88:	fadff06f          	j	42013e34 <gpio_esp32_config+0x248>
42013e8c:	60004637          	lui	a2,0x60004
42013e90:	00060613          	mv	a2,a2
42013e94:	02862703          	lw	a4,40(a2) # 60004028 <GPIO+0x28>
42013e98:	04000693          	li	a3,64
42013e9c:	00f696b3          	sll	a3,a3,a5
42013ea0:	fc0005b7          	lui	a1,0xfc000
42013ea4:	0066d693          	srli	a3,a3,0x6
42013ea8:	00b77733          	and	a4,a4,a1
42013eac:	00d76733          	or	a4,a4,a3
42013eb0:	02e62423          	sw	a4,40(a2)
42013eb4:	18001737          	lui	a4,0x18001
42013eb8:	15570713          	addi	a4,a4,341 # 18001155 <CONFIG_SYS_CLOCK_HW_CYCLES_PER_SEC+0x170bed55>
42013ebc:	00e787b3          	add	a5,a5,a4
42013ec0:	00279793          	slli	a5,a5,0x2
42013ec4:	08000713          	li	a4,128
42013ec8:	00e7a023          	sw	a4,0(a5) # 40000 <_image_irom_size+0x3b8dc>
42013ecc:	f69ff06f          	j	42013e34 <gpio_esp32_config+0x248>
42013ed0:	dff7f793          	andi	a5,a5,-513
42013ed4:	f75ff06f          	j	42013e48 <gpio_esp32_config+0x25c>

42013ed8 <uart_esp32_err_check>:
42013ed8:	01052783          	lw	a5,16(a0)
42013edc:	0087a783          	lw	a5,8(a5)
42013ee0:	0087a503          	lw	a0,8(a5)
42013ee4:	00c57513          	andi	a0,a0,12
42013ee8:	00008067          	ret

42013eec <uart_esp32_config_get>:
42013eec:	fe010113          	addi	sp,sp,-32
42013ef0:	00812c23          	sw	s0,24(sp)
42013ef4:	00112e23          	sw	ra,28(sp)
42013ef8:	00912a23          	sw	s1,20(sp)
42013efc:	01052483          	lw	s1,16(a0)
42013f00:	00058413          	mv	s0,a1
42013f04:	0004a783          	lw	a5,0(s1)
42013f08:	00848493          	addi	s1,s1,8
42013f0c:	00048513          	mv	a0,s1
42013f10:	00f5a023          	sw	a5,0(a1) # fc000000 <CONFIG_SYSTEM_WORKQUEUE_PRIORITY+0xfc000001>
42013f14:	00010593          	mv	a1,sp
42013f18:	815fc0ef          	jal	ra,4201072c <uart_hal_get_parity>
42013f1c:	00012783          	lw	a5,0(sp)
42013f20:	00200713          	li	a4,2
42013f24:	02e78463          	beq	a5,a4,42013f4c <uart_esp32_config_get+0x60>
42013f28:	00300713          	li	a4,3
42013f2c:	0ae78463          	beq	a5,a4,42013fd4 <uart_esp32_config_get+0xe8>
42013f30:	0a078663          	beqz	a5,42013fdc <uart_esp32_config_get+0xf0>
42013f34:	f7a00513          	li	a0,-134
42013f38:	01c12083          	lw	ra,28(sp)
42013f3c:	01812403          	lw	s0,24(sp)
42013f40:	01412483          	lw	s1,20(sp)
42013f44:	02010113          	addi	sp,sp,32
42013f48:	00008067          	ret
42013f4c:	00200793          	li	a5,2
42013f50:	00f40223          	sb	a5,4(s0)
42013f54:	00410593          	addi	a1,sp,4
42013f58:	00048513          	mv	a0,s1
42013f5c:	f4cfc0ef          	jal	ra,420106a8 <uart_hal_get_stop_bits>
42013f60:	00412783          	lw	a5,4(sp)
42013f64:	00200713          	li	a4,2
42013f68:	06e78e63          	beq	a5,a4,42013fe4 <uart_esp32_config_get+0xf8>
42013f6c:	00300713          	li	a4,3
42013f70:	06e78e63          	beq	a5,a4,42013fec <uart_esp32_config_get+0x100>
42013f74:	00100713          	li	a4,1
42013f78:	fae79ee3          	bne	a5,a4,42013f34 <uart_esp32_config_get+0x48>
42013f7c:	00100793          	li	a5,1
42013f80:	00f402a3          	sb	a5,5(s0)
42013f84:	00810593          	addi	a1,sp,8
42013f88:	00048513          	mv	a0,s1
42013f8c:	f54fc0ef          	jal	ra,420106e0 <uart_hal_get_data_bit_num>
42013f90:	00812783          	lw	a5,8(sp)
42013f94:	00200713          	li	a4,2
42013f98:	06e78663          	beq	a5,a4,42014004 <uart_esp32_config_get+0x118>
42013f9c:	04f76c63          	bltu	a4,a5,42013ff4 <uart_esp32_config_get+0x108>
42013fa0:	00f037b3          	snez	a5,a5
42013fa4:	00f40323          	sb	a5,6(s0)
42013fa8:	00c10593          	addi	a1,sp,12
42013fac:	00048513          	mv	a0,s1
42013fb0:	821fc0ef          	jal	ra,420107d0 <uart_hal_get_hw_flow_ctrl>
42013fb4:	00c12783          	lw	a5,12(sp)
42013fb8:	04078a63          	beqz	a5,4201400c <uart_esp32_config_get+0x120>
42013fbc:	00300713          	li	a4,3
42013fc0:	f6e79ae3          	bne	a5,a4,42013f34 <uart_esp32_config_get+0x48>
42013fc4:	00100793          	li	a5,1
42013fc8:	00f403a3          	sb	a5,7(s0)
42013fcc:	00000513          	li	a0,0
42013fd0:	f69ff06f          	j	42013f38 <uart_esp32_config_get+0x4c>
42013fd4:	00100793          	li	a5,1
42013fd8:	f79ff06f          	j	42013f50 <uart_esp32_config_get+0x64>
42013fdc:	00000793          	li	a5,0
42013fe0:	f71ff06f          	j	42013f50 <uart_esp32_config_get+0x64>
42013fe4:	00200793          	li	a5,2
42013fe8:	f99ff06f          	j	42013f80 <uart_esp32_config_get+0x94>
42013fec:	00300793          	li	a5,3
42013ff0:	f91ff06f          	j	42013f80 <uart_esp32_config_get+0x94>
42013ff4:	00300713          	li	a4,3
42013ff8:	f2e79ee3          	bne	a5,a4,42013f34 <uart_esp32_config_get+0x48>
42013ffc:	00300793          	li	a5,3
42014000:	fa5ff06f          	j	42013fa4 <uart_esp32_config_get+0xb8>
42014004:	00200793          	li	a5,2
42014008:	f9dff06f          	j	42013fa4 <uart_esp32_config_get+0xb8>
4201400c:	00000793          	li	a5,0
42014010:	fb9ff06f          	j	42013fc8 <uart_esp32_config_get+0xdc>

42014014 <uart_esp32_poll_out>:
42014014:	fd010113          	addi	sp,sp,-48
42014018:	02112623          	sw	ra,44(sp)
4201401c:	01052503          	lw	a0,16(a0)
42014020:	00b107a3          	sb	a1,15(sp)
42014024:	08000713          	li	a4,128
42014028:	00852683          	lw	a3,8(a0)
4201402c:	01c6a783          	lw	a5,28(a3)
42014030:	0107d793          	srli	a5,a5,0x10
42014034:	3ff7f793          	andi	a5,a5,1023
42014038:	fee78ae3          	beq	a5,a4,4201402c <uart_esp32_poll_out+0x18>
4201403c:	01c10693          	addi	a3,sp,28
42014040:	00f10593          	addi	a1,sp,15
42014044:	00100613          	li	a2,1
42014048:	00850513          	addi	a0,a0,8
4201404c:	90dfc0ef          	jal	ra,42010958 <uart_hal_write_txfifo>
42014050:	02c12083          	lw	ra,44(sp)
42014054:	03010113          	addi	sp,sp,48
42014058:	00008067          	ret

4201405c <uart_esp32_poll_in>:
4201405c:	fe010113          	addi	sp,sp,-32
42014060:	00112e23          	sw	ra,28(sp)
42014064:	01052503          	lw	a0,16(a0)
42014068:	00100793          	li	a5,1
4201406c:	00f12623          	sw	a5,12(sp)
42014070:	00852783          	lw	a5,8(a0)
42014074:	01c7a783          	lw	a5,28(a5)
42014078:	3ff7f793          	andi	a5,a5,1023
4201407c:	02078063          	beqz	a5,4201409c <uart_esp32_poll_in+0x40>
42014080:	00850513          	addi	a0,a0,8
42014084:	00c10613          	addi	a2,sp,12
42014088:	92dfc0ef          	jal	ra,420109b4 <uart_hal_read_rxfifo>
4201408c:	00000513          	li	a0,0
42014090:	01c12083          	lw	ra,28(sp)
42014094:	02010113          	addi	sp,sp,32
42014098:	00008067          	ret
4201409c:	fff00513          	li	a0,-1
420140a0:	ff1ff06f          	j	42014090 <uart_esp32_poll_in+0x34>

420140a4 <uart_esp32_configure>:
420140a4:	fe010113          	addi	sp,sp,-32
420140a8:	00912a23          	sw	s1,20(sp)
420140ac:	00112e23          	sw	ra,28(sp)
420140b0:	00812c23          	sw	s0,24(sp)
420140b4:	01212823          	sw	s2,16(sp)
420140b8:	00452903          	lw	s2,4(a0)
420140bc:	01052403          	lw	s0,16(a0)
420140c0:	00058493          	mv	s1,a1
420140c4:	00492503          	lw	a0,4(s2)
420140c8:	00c10613          	addi	a2,sp,12
420140cc:	00000593          	li	a1,0
420140d0:	268000ef          	jal	ra,42014338 <pinctrl_lookup_state>
420140d4:	08054a63          	bltz	a0,42014168 <uart_esp32_configure+0xc4>
420140d8:	00c12783          	lw	a5,12(sp)
420140dc:	00000613          	li	a2,0
420140e0:	0047c583          	lbu	a1,4(a5)
420140e4:	0007a503          	lw	a0,0(a5)
420140e8:	28c000ef          	jal	ra,42014374 <pinctrl_configure_pins>
420140ec:	06054e63          	bltz	a0,42014168 <uart_esp32_configure+0xc4>
420140f0:	00092503          	lw	a0,0(s2)
420140f4:	fe36c097          	auipc	ra,0xfe36c
420140f8:	44c080e7          	jalr	1100(ra) # 40380540 <z_device_is_ready>
420140fc:	00050793          	mv	a5,a0
42014100:	fed00513          	li	a0,-19
42014104:	06078263          	beqz	a5,42014168 <uart_esp32_configure+0xc4>
42014108:	00092503          	lw	a0,0(s2)
4201410c:	00892583          	lw	a1,8(s2)
42014110:	00840413          	addi	s0,s0,8
42014114:	00852783          	lw	a5,8(a0)
42014118:	0007a783          	lw	a5,0(a5)
4201411c:	000780e7          	jalr	a5
42014120:	00000593          	li	a1,0
42014124:	00040513          	mv	a0,s0
42014128:	d00fc0ef          	jal	ra,42010628 <uart_hal_set_sclk>
4201412c:	01600593          	li	a1,22
42014130:	00040513          	mv	a0,s0
42014134:	ed0fc0ef          	jal	ra,42010804 <uart_hal_set_rxfifo_full_thr>
42014138:	00100593          	li	a1,1
4201413c:	00040513          	mv	a0,s0
42014140:	ee0fc0ef          	jal	ra,42010820 <uart_hal_set_txfifo_empty_thr>
42014144:	00040513          	mv	a0,s0
42014148:	fe4fc0ef          	jal	ra,4201092c <uart_hal_rxfifo_rst>
4201414c:	0044c783          	lbu	a5,4(s1)
42014150:	00100713          	li	a4,1
42014154:	08e78463          	beq	a5,a4,420141dc <uart_esp32_configure+0x138>
42014158:	00200713          	li	a4,2
4201415c:	06e78c63          	beq	a5,a4,420141d4 <uart_esp32_configure+0x130>
42014160:	02078063          	beqz	a5,42014180 <uart_esp32_configure+0xdc>
42014164:	f7a00513          	li	a0,-134
42014168:	01c12083          	lw	ra,28(sp)
4201416c:	01812403          	lw	s0,24(sp)
42014170:	01412483          	lw	s1,20(sp)
42014174:	01012903          	lw	s2,16(sp)
42014178:	02010113          	addi	sp,sp,32
4201417c:	00008067          	ret
42014180:	00000593          	li	a1,0
42014184:	00040513          	mv	a0,s0
42014188:	d70fc0ef          	jal	ra,420106f8 <uart_hal_set_parity>
4201418c:	0054c783          	lbu	a5,5(s1)
42014190:	00200713          	li	a4,2
42014194:	04e78863          	beq	a5,a4,420141e4 <uart_esp32_configure+0x140>
42014198:	00300713          	li	a4,3
4201419c:	04e78863          	beq	a5,a4,420141ec <uart_esp32_configure+0x148>
420141a0:	00100713          	li	a4,1
420141a4:	00100593          	li	a1,1
420141a8:	fae79ee3          	bne	a5,a4,42014164 <uart_esp32_configure+0xc0>
420141ac:	00040513          	mv	a0,s0
420141b0:	cd8fc0ef          	jal	ra,42010688 <uart_hal_set_stop_bits>
420141b4:	0064c783          	lbu	a5,6(s1)
420141b8:	00200713          	li	a4,2
420141bc:	06e78463          	beq	a5,a4,42014224 <uart_esp32_configure+0x180>
420141c0:	02f76a63          	bltu	a4,a5,420141f4 <uart_esp32_configure+0x150>
420141c4:	00100593          	li	a1,1
420141c8:	02079c63          	bnez	a5,42014200 <uart_esp32_configure+0x15c>
420141cc:	00000593          	li	a1,0
420141d0:	0300006f          	j	42014200 <uart_esp32_configure+0x15c>
420141d4:	00200593          	li	a1,2
420141d8:	fadff06f          	j	42014184 <uart_esp32_configure+0xe0>
420141dc:	00300593          	li	a1,3
420141e0:	fa5ff06f          	j	42014184 <uart_esp32_configure+0xe0>
420141e4:	00200593          	li	a1,2
420141e8:	fc5ff06f          	j	420141ac <uart_esp32_configure+0x108>
420141ec:	00300593          	li	a1,3
420141f0:	fbdff06f          	j	420141ac <uart_esp32_configure+0x108>
420141f4:	00300713          	li	a4,3
420141f8:	00300593          	li	a1,3
420141fc:	f6e794e3          	bne	a5,a4,42014164 <uart_esp32_configure+0xc0>
42014200:	00040513          	mv	a0,s0
42014204:	cbcfc0ef          	jal	ra,420106c0 <uart_hal_set_data_bit_num>
42014208:	0074c783          	lbu	a5,7(s1)
4201420c:	02078063          	beqz	a5,4201422c <uart_esp32_configure+0x188>
42014210:	00100713          	li	a4,1
42014214:	f4e798e3          	bne	a5,a4,42014164 <uart_esp32_configure+0xc0>
42014218:	00a00613          	li	a2,10
4201421c:	00300593          	li	a1,3
42014220:	0140006f          	j	42014234 <uart_esp32_configure+0x190>
42014224:	00200593          	li	a1,2
42014228:	fd9ff06f          	j	42014200 <uart_esp32_configure+0x15c>
4201422c:	00000613          	li	a2,0
42014230:	00000593          	li	a1,0
42014234:	00040513          	mv	a0,s0
42014238:	d20fc0ef          	jal	ra,42010758 <uart_hal_set_hw_flow_ctrl>
4201423c:	0004a583          	lw	a1,0(s1)
42014240:	00040513          	mv	a0,s0
42014244:	c3cfc0ef          	jal	ra,42010680 <uart_hal_set_baudrate>
42014248:	00040513          	mv	a0,s0
4201424c:	01600593          	li	a1,22
42014250:	e54fc0ef          	jal	ra,420108a4 <uart_hal_set_rx_timeout>
42014254:	00000513          	li	a0,0
42014258:	f11ff06f          	j	42014168 <uart_esp32_configure+0xc4>

4201425c <uart_esp32_init>:
4201425c:	01052583          	lw	a1,16(a0)
42014260:	e45ff06f          	j	420140a4 <uart_esp32_configure>

42014264 <serial_esp32_usb_err_check>:
42014264:	00000513          	li	a0,0
42014268:	00008067          	ret

4201426c <serial_esp32_usb_init>:
4201426c:	ff010113          	addi	sp,sp,-16
42014270:	00112623          	sw	ra,12(sp)
42014274:	00812423          	sw	s0,8(sp)
42014278:	00452403          	lw	s0,4(a0)
4201427c:	00042503          	lw	a0,0(s0)
42014280:	fe36c097          	auipc	ra,0xfe36c
42014284:	2c0080e7          	jalr	704(ra) # 40380540 <z_device_is_ready>
42014288:	02050263          	beqz	a0,420142ac <serial_esp32_usb_init+0x40>
4201428c:	00042503          	lw	a0,0(s0)
42014290:	00442583          	lw	a1,4(s0)
42014294:	00812403          	lw	s0,8(sp)
42014298:	00852783          	lw	a5,8(a0)
4201429c:	00c12083          	lw	ra,12(sp)
420142a0:	0007a783          	lw	a5,0(a5)
420142a4:	01010113          	addi	sp,sp,16
420142a8:	00078067          	jr	a5
420142ac:	00c12083          	lw	ra,12(sp)
420142b0:	00812403          	lw	s0,8(sp)
420142b4:	fed00513          	li	a0,-19
420142b8:	01010113          	addi	sp,sp,16
420142bc:	00008067          	ret

420142c0 <serial_esp32_usb_poll_in>:
420142c0:	600437b7          	lui	a5,0x60043
420142c4:	00078793          	mv	a5,a5
420142c8:	0047a703          	lw	a4,4(a5) # 60043004 <USB_SERIAL_JTAG+0x4>
420142cc:	fff00513          	li	a0,-1
420142d0:	00275713          	srli	a4,a4,0x2
420142d4:	00177713          	andi	a4,a4,1
420142d8:	02070063          	beqz	a4,420142f8 <serial_esp32_usb_poll_in+0x38>
420142dc:	0047a703          	lw	a4,4(a5)
420142e0:	00275713          	srli	a4,a4,0x2
420142e4:	00177713          	andi	a4,a4,1
420142e8:	00070663          	beqz	a4,420142f4 <serial_esp32_usb_poll_in+0x34>
420142ec:	0007a783          	lw	a5,0(a5)
420142f0:	00f58023          	sb	a5,0(a1)
420142f4:	00000513          	li	a0,0
420142f8:	00008067          	ret

420142fc <serial_esp32_usb_poll_out>:
420142fc:	600437b7          	lui	a5,0x60043
42014300:	00078793          	mv	a5,a5
42014304:	0047a703          	lw	a4,4(a5) # 60043004 <USB_SERIAL_JTAG+0x4>
42014308:	00175713          	srli	a4,a4,0x1
4201430c:	00177713          	andi	a4,a4,1
42014310:	fe070ae3          	beqz	a4,42014304 <serial_esp32_usb_poll_out+0x8>
42014314:	0047a703          	lw	a4,4(a5)
42014318:	00175713          	srli	a4,a4,0x1
4201431c:	00177713          	andi	a4,a4,1
42014320:	00070463          	beqz	a4,42014328 <serial_esp32_usb_poll_out+0x2c>
42014324:	00b7a023          	sw	a1,0(a5)
42014328:	0047a703          	lw	a4,4(a5)
4201432c:	00176713          	ori	a4,a4,1
42014330:	00e7a223          	sw	a4,4(a5)
42014334:	00008067          	ret

42014338 <pinctrl_lookup_state>:
42014338:	00052783          	lw	a5,0(a0)
4201433c:	00f62023          	sw	a5,0(a2)
42014340:	00454683          	lbu	a3,4(a0)
42014344:	00052703          	lw	a4,0(a0)
42014348:	00369693          	slli	a3,a3,0x3
4201434c:	00d70733          	add	a4,a4,a3
42014350:	00e7e663          	bltu	a5,a4,4201435c <pinctrl_lookup_state+0x24>
42014354:	ffe00513          	li	a0,-2
42014358:	00008067          	ret
4201435c:	0057c703          	lbu	a4,5(a5)
42014360:	00b70663          	beq	a4,a1,4201436c <pinctrl_lookup_state+0x34>
42014364:	00878793          	addi	a5,a5,8
42014368:	fd5ff06f          	j	4201433c <pinctrl_lookup_state+0x4>
4201436c:	00000513          	li	a0,0
42014370:	00008067          	ret

42014374 <pinctrl_configure_pins>:
42014374:	fc010113          	addi	sp,sp,-64
42014378:	02912a23          	sw	s1,52(sp)
4201437c:	03212823          	sw	s2,48(sp)
42014380:	03512223          	sw	s5,36(sp)
42014384:	03612023          	sw	s6,32(sp)
42014388:	00359593          	slli	a1,a1,0x3
4201438c:	3c000ab7          	lui	s5,0x3c000
42014390:	00400b37          	lui	s6,0x400
42014394:	3c0004b7          	lui	s1,0x3c000
42014398:	60004937          	lui	s2,0x60004
4201439c:	03312623          	sw	s3,44(sp)
420143a0:	01812c23          	sw	s8,24(sp)
420143a4:	02112e23          	sw	ra,60(sp)
420143a8:	02812c23          	sw	s0,56(sp)
420143ac:	03412423          	sw	s4,40(sp)
420143b0:	01712e23          	sw	s7,28(sp)
420143b4:	01912a23          	sw	s9,20(sp)
420143b8:	01a12823          	sw	s10,16(sp)
420143bc:	01b12623          	sw	s11,12(sp)
420143c0:	00050c13          	mv	s8,a0
420143c4:	00b509b3          	add	s3,a0,a1
420143c8:	670a8a93          	addi	s5,s5,1648 # 3c000670 <esp32_gpio_ports_addrs>
420143cc:	fffb0b13          	addi	s6,s6,-1 # 3fffff <_image_irom_size+0x3fb8db>
420143d0:	05448493          	addi	s1,s1,84 # 3c000054 <GPIO_PIN_MUX_REG>
420143d4:	00090913          	mv	s2,s2
420143d8:	05899263          	bne	s3,s8,4201441c <pinctrl_configure_pins+0xa8>
420143dc:	00000513          	li	a0,0
420143e0:	03c12083          	lw	ra,60(sp)
420143e4:	03812403          	lw	s0,56(sp)
420143e8:	03412483          	lw	s1,52(sp)
420143ec:	03012903          	lw	s2,48(sp)
420143f0:	02c12983          	lw	s3,44(sp)
420143f4:	02812a03          	lw	s4,40(sp)
420143f8:	02412a83          	lw	s5,36(sp)
420143fc:	02012b03          	lw	s6,32(sp)
42014400:	01c12b83          	lw	s7,28(sp)
42014404:	01812c03          	lw	s8,24(sp)
42014408:	01412c83          	lw	s9,20(sp)
4201440c:	01012d03          	lw	s10,16(sp)
42014410:	00c12d83          	lw	s11,12(sp)
42014414:	04010113          	addi	sp,sp,64
42014418:	00008067          	ret
4201441c:	000c2783          	lw	a5,0(s8)
42014420:	004c2703          	lw	a4,4(s8)
42014424:	0207f613          	andi	a2,a5,32
42014428:	0067da13          	srli	s4,a5,0x6
4201442c:	00f7dc93          	srli	s9,a5,0xf
42014430:	03f7f413          	andi	s0,a5,63
42014434:	00c037b3          	snez	a5,a2
42014438:	00279793          	slli	a5,a5,0x2
4201443c:	00fa87b3          	add	a5,s5,a5
42014440:	0007a783          	lw	a5,0(a5)
42014444:	1ffa7a13          	andi	s4,s4,511
42014448:	1ffcfc93          	andi	s9,s9,511
4201444c:	2e078063          	beqz	a5,4201472c <pinctrl_configure_pins+0x3b8>
42014450:	00377793          	andi	a5,a4,3
42014454:	00200693          	li	a3,2
42014458:	00d78863          	beq	a5,a3,42014468 <pinctrl_configure_pins+0xf4>
4201445c:	ffd78793          	addi	a5,a5,-3
42014460:	0017b793          	seqz	a5,a5
42014464:	00279793          	slli	a5,a5,0x2
42014468:	00275693          	srli	a3,a4,0x2
4201446c:	0036f693          	andi	a3,a3,3
42014470:	00100593          	li	a1,1
42014474:	02b68063          	beq	a3,a1,42014494 <pinctrl_configure_pins+0x120>
42014478:	00200593          	li	a1,2
4201447c:	02b68063          	beq	a3,a1,4201449c <pinctrl_configure_pins+0x128>
42014480:	1ff00693          	li	a3,511
42014484:	02da1063          	bne	s4,a3,420144a4 <pinctrl_configure_pins+0x130>
42014488:	034c9263          	bne	s9,s4,420144ac <pinctrl_configure_pins+0x138>
4201448c:	f7a00513          	li	a0,-134
42014490:	f51ff06f          	j	420143e0 <pinctrl_configure_pins+0x6c>
42014494:	0087e793          	ori	a5,a5,8
42014498:	fe9ff06f          	j	42014480 <pinctrl_configure_pins+0x10c>
4201449c:	0107e793          	ori	a5,a5,16
420144a0:	fe1ff06f          	j	42014480 <pinctrl_configure_pins+0x10c>
420144a4:	0207e793          	ori	a5,a5,32
420144a8:	00dc8463          	beq	s9,a3,420144b0 <pinctrl_configure_pins+0x13c>
420144ac:	0407e793          	ori	a5,a5,64
420144b0:	00475713          	srli	a4,a4,0x4
420144b4:	00377713          	andi	a4,a4,3
420144b8:	00100693          	li	a3,1
420144bc:	18d70c63          	beq	a4,a3,42014654 <pinctrl_configure_pins+0x2e0>
420144c0:	00200693          	li	a3,2
420144c4:	1ad70263          	beq	a4,a3,42014668 <pinctrl_configure_pins+0x2f4>
420144c8:	00000613          	li	a2,0
420144cc:	00000593          	li	a1,0
420144d0:	008b5733          	srl	a4,s6,s0
420144d4:	00177713          	andi	a4,a4,1
420144d8:	0407fd93          	andi	s11,a5,64
420144dc:	0207fb93          	andi	s7,a5,32
420144e0:	12070c63          	beqz	a4,42014618 <pinctrl_configure_pins+0x2a4>
420144e4:	01500713          	li	a4,21
420144e8:	12876863          	bltu	a4,s0,42014618 <pinctrl_configure_pins+0x2a4>
420144ec:	00241d13          	slli	s10,s0,0x2
420144f0:	01a48733          	add	a4,s1,s10
420144f4:	00072683          	lw	a3,0(a4)
420144f8:	9fff7737          	lui	a4,0x9fff7
420144fc:	fb470713          	addi	a4,a4,-76 # 9fff6fb4 <CONFIG_SYSTEM_WORKQUEUE_PRIORITY+0x9fff6fb5>
42014500:	00e68733          	add	a4,a3,a4
42014504:	ffb77713          	andi	a4,a4,-5
42014508:	00071e63          	bnez	a4,42014524 <pinctrl_configure_pins+0x1b0>
4201450c:	60043837          	lui	a6,0x60043
42014510:	01882703          	lw	a4,24(a6) # 60043018 <USB_SERIAL_JTAG+0x18>
42014514:	ffffc537          	lui	a0,0xffffc
42014518:	fff50513          	addi	a0,a0,-1 # ffffbfff <CONFIG_SYSTEM_WORKQUEUE_PRIORITY+0xffffc000>
4201451c:	00a77733          	and	a4,a4,a0
42014520:	00e82c23          	sw	a4,24(a6)
42014524:	0006a703          	lw	a4,0(a3)
42014528:	ffff9537          	lui	a0,0xffff9
4201452c:	fff50513          	addi	a0,a0,-1 # ffff8fff <CONFIG_SYSTEM_WORKQUEUE_PRIORITY+0xffff9000>
42014530:	00a77733          	and	a4,a4,a0
42014534:	00001537          	lui	a0,0x1
42014538:	00a76733          	or	a4,a4,a0
4201453c:	00e6a023          	sw	a4,0(a3)
42014540:	0027f713          	andi	a4,a5,2
42014544:	14070663          	beqz	a4,42014690 <pinctrl_configure_pins+0x31c>
42014548:	01a48733          	add	a4,s1,s10
4201454c:	00072703          	lw	a4,0(a4)
42014550:	00072683          	lw	a3,0(a4)
42014554:	f7f6f693          	andi	a3,a3,-129
42014558:	00d72023          	sw	a3,0(a4)
4201455c:	00072683          	lw	a3,0(a4)
42014560:	1006e693          	ori	a3,a3,256
42014564:	00d72023          	sw	a3,0(a4)
42014568:	00100713          	li	a4,1
4201456c:	040006b7          	lui	a3,0x4000
42014570:	00871733          	sll	a4,a4,s0
42014574:	fff68693          	addi	a3,a3,-1 # 3ffffff <CONFIG_SYS_CLOCK_HW_CYCLES_PER_SEC+0x30bdbff>
42014578:	00d77733          	and	a4,a4,a3
4201457c:	160d8a63          	beqz	s11,420146f0 <pinctrl_configure_pins+0x37c>
42014580:	01c40693          	addi	a3,s0,28
42014584:	0107f793          	andi	a5,a5,16
42014588:	00269693          	slli	a3,a3,0x2
4201458c:	12078663          	beqz	a5,420146b8 <pinctrl_configure_pins+0x344>
42014590:	600047b7          	lui	a5,0x60004
42014594:	00d787b3          	add	a5,a5,a3
42014598:	0047a683          	lw	a3,4(a5) # 60004004 <GPIO+0x4>
4201459c:	0046e693          	ori	a3,a3,4
420145a0:	00d7a223          	sw	a3,4(a5)
420145a4:	040007b7          	lui	a5,0x4000
420145a8:	fff78793          	addi	a5,a5,-1 # 3ffffff <CONFIG_SYS_CLOCK_HW_CYCLES_PER_SEC+0x30bdbff>
420145ac:	12058063          	beqz	a1,420146cc <pinctrl_configure_pins+0x358>
420145b0:	60004637          	lui	a2,0x60004
420145b4:	00862683          	lw	a3,8(a2) # 60004008 <GPIO+0x8>
420145b8:	fc0005b7          	lui	a1,0xfc000
420145bc:	00f777b3          	and	a5,a4,a5
420145c0:	00b6f6b3          	and	a3,a3,a1
420145c4:	00f6e7b3          	or	a5,a3,a5
420145c8:	00f62423          	sw	a5,8(a2)
420145cc:	02492783          	lw	a5,36(s2) # 60004024 <GPIO+0x24>
420145d0:	fc0006b7          	lui	a3,0xfc000
420145d4:	00671713          	slli	a4,a4,0x6
420145d8:	00d7f7b3          	and	a5,a5,a3
420145dc:	00675713          	srli	a4,a4,0x6
420145e0:	00e7e7b3          	or	a5,a5,a4
420145e4:	00000693          	li	a3,0
420145e8:	00000613          	li	a2,0
420145ec:	08000593          	li	a1,128
420145f0:	00040513          	mv	a0,s0
420145f4:	02f92223          	sw	a5,36(s2)
420145f8:	fdfec097          	auipc	ra,0xfdfec
420145fc:	fac080e7          	jalr	-84(ra) # 400005a4 <esp_rom_gpio_matrix_out>
42014600:	01a48d33          	add	s10,s1,s10
42014604:	000d2783          	lw	a5,0(s10)
42014608:	0007a703          	lw	a4,0(a5)
4201460c:	100b8c63          	beqz	s7,42014724 <pinctrl_configure_pins+0x3b0>
42014610:	20076713          	ori	a4,a4,512
42014614:	00e7a023          	sw	a4,0(a5)
42014618:	000d8e63          	beqz	s11,42014634 <pinctrl_configure_pins+0x2c0>
4201461c:	00000693          	li	a3,0
42014620:	00000613          	li	a2,0
42014624:	000c8593          	mv	a1,s9
42014628:	00040513          	mv	a0,s0
4201462c:	fdfec097          	auipc	ra,0xfdfec
42014630:	f78080e7          	jalr	-136(ra) # 400005a4 <esp_rom_gpio_matrix_out>
42014634:	000b8c63          	beqz	s7,4201464c <pinctrl_configure_pins+0x2d8>
42014638:	00000613          	li	a2,0
4201463c:	000a0593          	mv	a1,s4
42014640:	00040513          	mv	a0,s0
42014644:	fdfec097          	auipc	ra,0xfdfec
42014648:	f5c080e7          	jalr	-164(ra) # 400005a0 <esp_rom_gpio_matrix_in>
4201464c:	008c0c13          	addi	s8,s8,8
42014650:	d89ff06f          	j	420143d8 <pinctrl_configure_pins+0x64>
42014654:	02060263          	beqz	a2,42014678 <pinctrl_configure_pins+0x304>
42014658:	0807e793          	ori	a5,a5,128
4201465c:	00000613          	li	a2,0
42014660:	08000593          	li	a1,128
42014664:	e6dff06f          	j	420144d0 <pinctrl_configure_pins+0x15c>
42014668:	00060e63          	beqz	a2,42014684 <pinctrl_configure_pins+0x310>
4201466c:	1007e793          	ori	a5,a5,256
42014670:	10000613          	li	a2,256
42014674:	e59ff06f          	j	420144cc <pinctrl_configure_pins+0x158>
42014678:	60004737          	lui	a4,0x60004
4201467c:	00872423          	sw	s0,8(a4) # 60004008 <GPIO+0x8>
42014680:	fd9ff06f          	j	42014658 <pinctrl_configure_pins+0x2e4>
42014684:	60004737          	lui	a4,0x60004
42014688:	00872623          	sw	s0,12(a4) # 6000400c <GPIO+0xc>
4201468c:	fe1ff06f          	j	4201466c <pinctrl_configure_pins+0x2f8>
42014690:	0047f713          	andi	a4,a5,4
42014694:	ec070ae3          	beqz	a4,42014568 <pinctrl_configure_pins+0x1f4>
42014698:	01a48733          	add	a4,s1,s10
4201469c:	00072703          	lw	a4,0(a4)
420146a0:	00072683          	lw	a3,0(a4)
420146a4:	eff6f693          	andi	a3,a3,-257
420146a8:	00d72023          	sw	a3,0(a4)
420146ac:	00072683          	lw	a3,0(a4)
420146b0:	0806e693          	ori	a3,a3,128
420146b4:	eb1ff06f          	j	42014564 <pinctrl_configure_pins+0x1f0>
420146b8:	600047b7          	lui	a5,0x60004
420146bc:	00d787b3          	add	a5,a5,a3
420146c0:	0047a683          	lw	a3,4(a5) # 60004004 <GPIO+0x4>
420146c4:	ffb6f693          	andi	a3,a3,-5
420146c8:	ed9ff06f          	j	420145a0 <pinctrl_configure_pins+0x22c>
420146cc:	f00600e3          	beqz	a2,420145cc <pinctrl_configure_pins+0x258>
420146d0:	60004637          	lui	a2,0x60004
420146d4:	00c62683          	lw	a3,12(a2) # 6000400c <GPIO+0xc>
420146d8:	fc0005b7          	lui	a1,0xfc000
420146dc:	00f777b3          	and	a5,a4,a5
420146e0:	00b6f6b3          	and	a3,a3,a1
420146e4:	00f6e7b3          	or	a5,a3,a5
420146e8:	00f62623          	sw	a5,12(a2)
420146ec:	ee1ff06f          	j	420145cc <pinctrl_configure_pins+0x258>
420146f0:	02892783          	lw	a5,40(s2)
420146f4:	00d77733          	and	a4,a4,a3
420146f8:	fc0006b7          	lui	a3,0xfc000
420146fc:	00d7f7b3          	and	a5,a5,a3
42014700:	00e7e7b3          	or	a5,a5,a4
42014704:	02f92423          	sw	a5,40(s2)
42014708:	180017b7          	lui	a5,0x18001
4201470c:	15578793          	addi	a5,a5,341 # 18001155 <CONFIG_SYS_CLOCK_HW_CYCLES_PER_SEC+0x170bed55>
42014710:	00f407b3          	add	a5,s0,a5
42014714:	00279793          	slli	a5,a5,0x2
42014718:	08000713          	li	a4,128
4201471c:	00e7a023          	sw	a4,0(a5)
42014720:	ee1ff06f          	j	42014600 <pinctrl_configure_pins+0x28c>
42014724:	dff77713          	andi	a4,a4,-513
42014728:	eedff06f          	j	42014614 <pinctrl_configure_pins+0x2a0>
4201472c:	fea00513          	li	a0,-22
42014730:	cb1ff06f          	j	420143e0 <pinctrl_configure_pins+0x6c>
	...
